# SymbolsHelper-Confirmed: 6.4.0 amd64 armel
libQt6SpatialAudio.so.6 libqt6spatialaudio6 #MINVER#
* Build-Depends-Package: qt6-multimedia-dev
 _ZN10QAudioRoom11qt_metacallEN11QMetaObject4CallEiPPv@Base 6.4.0
 _ZN10QAudioRoom11qt_metacastEPKc@Base 6.4.0
 _ZN10QAudioRoom11setPositionE9QVector3D@Base 6.4.0
 _ZN10QAudioRoom11setRotationERK11QQuaternion@Base 6.4.0
 _ZN10QAudioRoom12wallsChangedEv@Base 6.4.0
 _ZN10QAudioRoom13setDimensionsE9QVector3D@Base 6.4.0
 _ZN10QAudioRoom13setReverbGainEf@Base 6.4.0
 _ZN10QAudioRoom13setReverbTimeEf@Base 6.4.0
 _ZN10QAudioRoom15positionChangedEv@Base 6.4.0
 _ZN10QAudioRoom15rotationChangedEv@Base 6.4.0
 _ZN10QAudioRoom15setWallMaterialENS_4WallENS_8MaterialE@Base 6.4.0
 _ZN10QAudioRoom16staticMetaObjectE@Base 6.4.0
 _ZN10QAudioRoom17dimensionsChangedEv@Base 6.4.0
 _ZN10QAudioRoom17reverbGainChangedEv@Base 6.4.0
 _ZN10QAudioRoom17reverbTimeChangedEv@Base 6.4.0
 _ZN10QAudioRoom17setReflectionGainEf@Base 6.4.0
 _ZN10QAudioRoom19setReverbBrightnessEf@Base 6.4.0
 _ZN10QAudioRoom21reflectionGainChangedEv@Base 6.4.0
 _ZN10QAudioRoom23reverbBrightnessChangedEv@Base 6.4.0
 _ZN10QAudioRoomC1EP12QAudioEngine@Base 6.4.0
 _ZN10QAudioRoomC2EP12QAudioEngine@Base 6.4.0
 _ZN10QAudioRoomD0Ev@Base 6.4.0
 _ZN10QAudioRoomD1Ev@Base 6.4.0
 _ZN10QAudioRoomD2Ev@Base 6.4.0
 _ZN12QAudioEngine11qt_metacallEN11QMetaObject4CallEiPPv@Base 6.4.0
 _ZN12QAudioEngine11qt_metacastEPKc@Base 6.4.0
 _ZN12QAudioEngine13pausedChangedEv@Base 6.4.0
 _ZN12QAudioEngine13setOutputModeENS_10OutputModeE@Base 6.4.0
 _ZN12QAudioEngine15setMasterVolumeEf@Base 6.4.0
 _ZN12QAudioEngine15setOutputDeviceERK12QAudioDevice@Base 6.4.0
 _ZN12QAudioEngine16setDistanceScaleEf@Base 6.4.0
 _ZN12QAudioEngine16staticMetaObjectE@Base 6.4.0
 _ZN12QAudioEngine17outputModeChangedEv@Base 6.4.0
 _ZN12QAudioEngine19masterVolumeChangedEv@Base 6.4.0
 _ZN12QAudioEngine19outputDeviceChangedEv@Base 6.4.0
 _ZN12QAudioEngine20distanceScaleChangedEv@Base 6.4.0
 _ZN12QAudioEngine21setRoomEffectsEnabledEb@Base 6.4.0
 _ZN12QAudioEngine4stopEv@Base 6.4.0
 _ZN12QAudioEngine5startEv@Base 6.4.0
 _ZN12QAudioEngine9setPausedEb@Base 6.4.0
 _ZN12QAudioEngineC1EiP7QObject@Base 6.4.0
 _ZN12QAudioEngineC2EiP7QObject@Base 6.4.0
 _ZN12QAudioEngineD0Ev@Base 6.4.0
 _ZN12QAudioEngineD1Ev@Base 6.4.0
 _ZN12QAudioEngineD2Ev@Base 6.4.0
 _ZN13QAmbientSound11qt_metacallEN11QMetaObject4CallEiPPv@Base 6.4.0
 _ZN13QAmbientSound11qt_metacastEPKc@Base 6.4.0
 _ZN13QAmbientSound11setAutoPlayEb@Base 6.4.0
 _ZN13QAmbientSound12loopsChangedEv@Base 6.4.0
 _ZN13QAmbientSound13sourceChangedEv@Base 6.4.0
 _ZN13QAmbientSound13volumeChangedEv@Base 6.4.0
 _ZN13QAmbientSound15autoPlayChangedEv@Base 6.4.0
 _ZN13QAmbientSound16staticMetaObjectE@Base 6.4.0
 _ZN13QAmbientSound4playEv@Base 6.4.0
 _ZN13QAmbientSound4stopEv@Base 6.4.0
 _ZN13QAmbientSound5pauseEv@Base 6.4.0
 _ZN13QAmbientSound8setLoopsEi@Base 6.4.0
 _ZN13QAmbientSound9setEngineEP12QAudioEngine@Base 6.4.0
 _ZN13QAmbientSound9setSourceERK4QUrl@Base 6.4.0
 _ZN13QAmbientSound9setVolumeEf@Base 6.4.0
 _ZN13QAmbientSoundC1EP12QAudioEngine@Base 6.4.0
 _ZN13QAmbientSoundC2EP12QAudioEngine@Base 6.4.0
 _ZN13QAmbientSoundD0Ev@Base 6.4.0
 _ZN13QAmbientSoundD1Ev@Base 6.4.0
 _ZN13QAmbientSoundD2Ev@Base 6.4.0
 _ZN13QSpatialSound11qt_metacallEN11QMetaObject4CallEiPPv@Base 6.4.0
 _ZN13QSpatialSound11qt_metacastEPKc@Base 6.4.0
 _ZN13QSpatialSound11setAutoPlayEb@Base 6.4.0
 _ZN13QSpatialSound11setPositionE9QVector3D@Base 6.4.0
 _ZN13QSpatialSound11setRotationERK11QQuaternion@Base 6.4.0
 _ZN13QSpatialSound11sizeChangedEv@Base 6.4.0
 _ZN13QSpatialSound12loopsChangedEv@Base 6.4.0
 _ZN13QSpatialSound13sourceChangedEv@Base 6.4.0
 _ZN13QSpatialSound13volumeChangedEv@Base 6.4.0
 _ZN13QSpatialSound14setDirectivityEf@Base 6.4.0
 _ZN13QSpatialSound15autoPlayChangedEv@Base 6.4.0
 _ZN13QSpatialSound15positionChangedEv@Base 6.4.0
 _ZN13QSpatialSound15rotationChangedEv@Base 6.4.0
 _ZN13QSpatialSound16setDistanceModelENS_13DistanceModelE@Base 6.4.0
 _ZN13QSpatialSound16setNearFieldGainEf@Base 6.4.0
 _ZN13QSpatialSound16staticMetaObjectE@Base 6.4.0
 _ZN13QSpatialSound17setDistanceCutoffEf@Base 6.4.0
 _ZN13QSpatialSound18directivityChangedEv@Base 6.4.0
 _ZN13QSpatialSound19setDirectivityOrderEf@Base 6.4.0
 _ZN13QSpatialSound20distanceModelChangedEv@Base 6.4.0
 _ZN13QSpatialSound20nearFieldGainChangedEv@Base 6.4.0
 _ZN13QSpatialSound20setManualAttenuationEf@Base 6.4.0
 _ZN13QSpatialSound21distanceCutoffChangedEv@Base 6.4.0
 _ZN13QSpatialSound21setOcclusionIntensityEf@Base 6.4.0
 _ZN13QSpatialSound23directivityOrderChangedEv@Base 6.4.0
 _ZN13QSpatialSound24manualAttenuationChangedEv@Base 6.4.0
 _ZN13QSpatialSound25occlusionIntensityChangedEv@Base 6.4.0
 _ZN13QSpatialSound4playEv@Base 6.4.0
 _ZN13QSpatialSound4stopEv@Base 6.4.0
 _ZN13QSpatialSound5pauseEv@Base 6.4.0
 _ZN13QSpatialSound7setSizeEf@Base 6.4.0
 _ZN13QSpatialSound8setLoopsEi@Base 6.4.0
 _ZN13QSpatialSound9setEngineEP12QAudioEngine@Base 6.4.0
 _ZN13QSpatialSound9setSourceERK4QUrl@Base 6.4.0
 _ZN13QSpatialSound9setVolumeEf@Base 6.4.0
 _ZN13QSpatialSoundC1EP12QAudioEngine@Base 6.4.0
 _ZN13QSpatialSoundC2EP12QAudioEngine@Base 6.4.0
 _ZN13QSpatialSoundD0Ev@Base 6.4.0
 _ZN13QSpatialSoundD1Ev@Base 6.4.0
 _ZN13QSpatialSoundD2Ev@Base 6.4.0
 _ZN14QAudioListener11setPositionE9QVector3D@Base 6.4.0
 _ZN14QAudioListener11setRotationERK11QQuaternion@Base 6.4.0
 _ZN14QAudioListener9setEngineEP12QAudioEngine@Base 6.4.0
 _ZN14QAudioListenerC1EP12QAudioEngine@Base 6.4.0
 _ZN14QAudioListenerC2EP12QAudioEngine@Base 6.4.0
 _ZN14QAudioListenerD0Ev@Base 6.4.0
 _ZN14QAudioListenerD1Ev@Base 6.4.0
 _ZN14QAudioListenerD2Ev@Base 6.4.0
 _ZNK10QAudioRoom10dimensionsEv@Base 6.4.0
 _ZNK10QAudioRoom10metaObjectEv@Base 6.4.0
 _ZNK10QAudioRoom10reverbGainEv@Base 6.4.0
 _ZNK10QAudioRoom10reverbTimeEv@Base 6.4.0
 _ZNK10QAudioRoom12wallMaterialENS_4WallE@Base 6.4.0
 _ZNK10QAudioRoom14reflectionGainEv@Base 6.4.0
 _ZNK10QAudioRoom16reverbBrightnessEv@Base 6.4.0
 _ZNK10QAudioRoom8positionEv@Base 6.4.0
 _ZNK10QAudioRoom8rotationEv@Base 6.4.0
 _ZNK12QAudioEngine10metaObjectEv@Base 6.4.0
 _ZNK12QAudioEngine10outputModeEv@Base 6.4.0
 _ZNK12QAudioEngine10sampleRateEv@Base 6.4.0
 _ZNK12QAudioEngine12masterVolumeEv@Base 6.4.0
 _ZNK12QAudioEngine12outputDeviceEv@Base 6.4.0
 _ZNK12QAudioEngine13distanceScaleEv@Base 6.4.0
 _ZNK12QAudioEngine18roomEffectsEnabledEv@Base 6.4.0
 _ZNK12QAudioEngine6pausedEv@Base 6.4.0
 _ZNK13QAmbientSound10metaObjectEv@Base 6.4.0
 _ZNK13QAmbientSound5loopsEv@Base 6.4.0
 _ZNK13QAmbientSound6engineEv@Base 6.4.0
 _ZNK13QAmbientSound6sourceEv@Base 6.4.0
 _ZNK13QAmbientSound6volumeEv@Base 6.4.0
 _ZNK13QAmbientSound8autoPlayEv@Base 6.4.0
 _ZNK13QSpatialSound10metaObjectEv@Base 6.4.0
 _ZNK13QSpatialSound11directivityEv@Base 6.4.0
 _ZNK13QSpatialSound13distanceModelEv@Base 6.4.0
 _ZNK13QSpatialSound13nearFieldGainEv@Base 6.4.0
 _ZNK13QSpatialSound14distanceCutoffEv@Base 6.4.0
 _ZNK13QSpatialSound16directivityOrderEv@Base 6.4.0
 _ZNK13QSpatialSound17manualAttenuationEv@Base 6.4.0
 _ZNK13QSpatialSound18occlusionIntensityEv@Base 6.4.0
 _ZNK13QSpatialSound4sizeEv@Base 6.4.0
 _ZNK13QSpatialSound5loopsEv@Base 6.4.0
 _ZNK13QSpatialSound6engineEv@Base 6.4.0
 _ZNK13QSpatialSound6sourceEv@Base 6.4.0
 _ZNK13QSpatialSound6volumeEv@Base 6.4.0
 _ZNK13QSpatialSound8autoPlayEv@Base 6.4.0
 _ZNK13QSpatialSound8positionEv@Base 6.4.0
 _ZNK13QSpatialSound8rotationEv@Base 6.4.0
 _ZNK14QAudioListener6engineEv@Base 6.4.0
 _ZNK14QAudioListener8positionEv@Base 6.4.0
 _ZNK14QAudioListener8rotationEv@Base 6.4.0
 (optional=templinst|arch=armel)_ZNSt10_HashtableINSt7__cxx1112basic_stringIcSt11char_traitsIcESaIcEEESt4pairIKS5_St6vectorIhSaIhEEESaISB_ENSt8__detail10_Select1stESt8equal_toIS5_ESt4hashIS5_ENSD_18_Mod_range_hashingENSD_20_Default_ranged_hashENSD_20_Prime_rehash_policyENSD_17_Hashtable_traitsILb1ELb0ELb1EEEEC1IPKSB_EET_SS_jRKSI_RKSG_RKSC_St17integral_constantIbLb1EE@Base 6.4.0
 (optional=templinst|arch=armel)_ZNSt10_HashtableINSt7__cxx1112basic_stringIcSt11char_traitsIcESaIcEEESt4pairIKS5_St6vectorIhSaIhEEESaISB_ENSt8__detail10_Select1stESt8equal_toIS5_ESt4hashIS5_ENSD_18_Mod_range_hashingENSD_20_Default_ranged_hashENSD_20_Prime_rehash_policyENSD_17_Hashtable_traitsILb1ELb0ELb1EEEEC2IPKSB_EET_SS_jRKSI_RKSG_RKSC_St17integral_constantIbLb1EE@Base 6.4.0
 (optional=templinst|arch=armel)_ZNSt6vectorISt8functionIFvvEESaIS2_EE17_M_realloc_insertIJS2_EEEvN9__gnu_cxx17__normal_iteratorIPS2_S4_EEDpOT_@Base 6.4.0
 (optional=templinst|subst|arch=armel)_ZNSt6vectorIfSaIfEE17_M_default_appendE{size_t}@Base 6.4.0
 (optional=templinst|subst|arch=armel)_ZNSt6vectorIsSaIsEE17_M_default_appendE{size_t}@Base 6.4.0
 (optional=templinst|arch=armel)_ZSt16__do_uninit_copyIPKSt4pairIiNSt7__cxx1112basic_stringIcSt11char_traitsIcESaIcEEEEPS7_ET0_T_SC_SB_@Base 6.4.0
 (arch=amd64)_ZSt19piecewise_construct@Base 6.4.0
 _ZTI10QAudioRoom@Base 6.4.0
 _ZTI12QAudioEngine@Base 6.4.0
 _ZTI13QAmbientSound@Base 6.4.0
 _ZTI13QSpatialSound@Base 6.4.0
 _ZTI14QAudioListener@Base 6.4.0
 (arch=armel)_ZTIN9__gnu_cxx7__mutexE@Base 6.4.0
 (arch=armel)_ZTISt11_Mutex_baseILN9__gnu_cxx12_Lock_policyE1EE@Base 6.4.0
 (arch=amd64)_ZTISt11_Mutex_baseILN9__gnu_cxx12_Lock_policyE2EE@Base 6.4.0
 (arch=armel)_ZTISt16_Sp_counted_baseILN9__gnu_cxx12_Lock_policyE1EE@Base 6.4.0
 (arch=amd64)_ZTISt16_Sp_counted_baseILN9__gnu_cxx12_Lock_policyE2EE@Base 6.4.0
 (arch=armel)_ZTISt19_Sp_make_shared_tag@Base 6.4.0
 _ZTS10QAudioRoom@Base 6.4.0
 _ZTS12QAudioEngine@Base 6.4.0
 _ZTS13QAmbientSound@Base 6.4.0
 _ZTS13QSpatialSound@Base 6.4.0
 _ZTS14QAudioListener@Base 6.4.0
 (arch=armel)_ZTSN9__gnu_cxx7__mutexE@Base 6.4.0
 (arch=armel)_ZTSSt11_Mutex_baseILN9__gnu_cxx12_Lock_policyE1EE@Base 6.4.0
 (arch=amd64)_ZTSSt11_Mutex_baseILN9__gnu_cxx12_Lock_policyE2EE@Base 6.4.0
 (arch=armel)_ZTSSt16_Sp_counted_baseILN9__gnu_cxx12_Lock_policyE1EE@Base 6.4.0
 (arch=amd64)_ZTSSt16_Sp_counted_baseILN9__gnu_cxx12_Lock_policyE2EE@Base 6.4.0
 _ZTSSt19_Sp_make_shared_tag@Base 6.4.0
 _ZTV10QAudioRoom@Base 6.4.0
 _ZTV12QAudioEngine@Base 6.4.0
 _ZTV13QAmbientSound@Base 6.4.0
 _ZTV13QSpatialSound@Base 6.4.0
 _ZTV14QAudioListener@Base 6.4.0
 _ZZNSt19_Sp_make_shared_tag5_S_tiEvE5__tag@Base 6.4.0
