# SymbolsHelper-Confirmed: 6.4.1 amd64
libQt6MultimediaQuick.so.6 libqt6multimediaquick6 #MINVER#
* Build-Depends-Package: qt6-multimedia-dev
 _Z31qml_register_types_QtMultimediav@Base 6.2.1
 _ZGVZN9QMetaType21registerConverterImplI5QListI12QAudioDeviceE9QIterableI13QMetaSequenceEEEbSt8functionIFbPKvPvEES_S_E10unregister@Base 6.4.0
 _ZGVZN9QMetaType21registerConverterImplI5QListI12QMediaFormatE9QIterableI13QMetaSequenceEEEbSt8functionIFbPKvPvEES_S_E10unregister@Base 6.4.0
 _ZGVZN9QMetaType21registerConverterImplI5QListI13QCameraDeviceE9QIterableI13QMetaSequenceEEEbSt8functionIFbPKvPvEES_S_E10unregister@Base 6.4.0
 _ZGVZN9QMetaType21registerConverterImplI5QListI13QCameraFormatE9QIterableI13QMetaSequenceEEEbSt8functionIFbPKvPvEES_S_E10unregister@Base 6.4.0
 _ZGVZN9QMetaType21registerConverterImplI5QListI14QMediaMetaDataE9QIterableI13QMetaSequenceEEEbSt8functionIFbPKvPvEES_S_E10unregister@Base 6.4.0
 _ZGVZN9QMetaType23registerMutableViewImplI5QListI12QAudioDeviceE9QIterableI13QMetaSequenceEEEbSt8functionIFbPvS8_EES_S_E10unregister@Base 6.4.0
 _ZGVZN9QMetaType23registerMutableViewImplI5QListI12QMediaFormatE9QIterableI13QMetaSequenceEEEbSt8functionIFbPvS8_EES_S_E10unregister@Base 6.4.0
 _ZGVZN9QMetaType23registerMutableViewImplI5QListI13QCameraDeviceE9QIterableI13QMetaSequenceEEEbSt8functionIFbPvS8_EES_S_E10unregister@Base 6.4.0
 _ZGVZN9QMetaType23registerMutableViewImplI5QListI13QCameraFormatE9QIterableI13QMetaSequenceEEEbSt8functionIFbPvS8_EES_S_E10unregister@Base 6.4.0
 _ZGVZN9QMetaType23registerMutableViewImplI5QListI14QMediaMetaDataE9QIterableI13QMetaSequenceEEEbSt8functionIFbPvS8_EES_S_E10unregister@Base 6.4.0
 _ZN13QMetaSequence12MetaSequenceI5QListI12QAudioDeviceEE5valueE@Base 6.4.0
 _ZN13QMetaSequence12MetaSequenceI5QListI12QMediaFormatEE5valueE@Base 6.4.0
 _ZN13QMetaSequence12MetaSequenceI5QListI13QCameraDeviceEE5valueE@Base 6.4.0
 _ZN13QMetaSequence12MetaSequenceI5QListI13QCameraFormatEE5valueE@Base 6.4.0
 _ZN13QMetaSequence12MetaSequenceI5QListI14QMediaMetaDataEE5valueE@Base 6.4.0
 _ZN15QSGVideoTexture13setRhiTextureEP11QRhiTexture@Base 6.2.1
 _ZN15QSGVideoTexture7setDataEN11QRhiTexture6FormatERK5QSizePKhi@Base 6.2.1
 _ZN15QSGVideoTextureC1Ev@Base 6.2.1
 _ZN15QSGVideoTextureC2Ev@Base 6.2.1
 _ZN15QSGVideoTextureD0Ev@Base 6.2.1
 _ZN15QSGVideoTextureD1Ev@Base 6.2.1
 _ZN15QSGVideoTextureD2Ev@Base 6.2.1
 _ZN17QQuickMediaPlayer11qt_metacallEN11QMetaObject4CallEiPPv@Base 6.2.4
 _ZN17QQuickMediaPlayer11qt_metacastEPKc@Base 6.2.4
 _ZN17QQuickMediaPlayer13sourceChangedERK4QUrl@Base 6.2.4
 _ZN17QQuickMediaPlayer16staticMetaObjectE@Base 6.2.4
 _ZN17QQuickSoundEffect11qt_metacallEN11QMetaObject4CallEiPPv@Base 6.2.4
 _ZN17QQuickSoundEffect11qt_metacastEPKc@Base 6.2.4
 _ZN17QQuickSoundEffect13sourceChangedERK4QUrl@Base 6.2.4
 _ZN17QQuickSoundEffect16staticMetaObjectE@Base 6.2.4
 _ZN17QQuickVideoOutput10itemChangeEN10QQuickItem10ItemChangeERKNS0_14ItemChangeDataE@Base 6.2.1
 _ZN17QQuickVideoOutput11_q_newFrameE5QSize@Base 6.4.0
 _ZN17QQuickVideoOutput11qt_metacallEN11QMetaObject4CallEiPPv@Base 6.2.1
 _ZN17QQuickVideoOutput11qt_metacastEPKc@Base 6.2.1
 _ZN17QQuickVideoOutput11setFillModeENS_8FillModeE@Base 6.2.1
 _ZN17QQuickVideoOutput12frameUpdatedE5QSize@Base 6.4.0
 _ZN17QQuickVideoOutput13sourceChangedEv@Base 6.2.1
 _ZN17QQuickVideoOutput14geometryChangeERK6QRectFS2_@Base 6.2.1
 _ZN17QQuickVideoOutput14initRhiForSinkEv@Base 6.2.1
 _ZN17QQuickVideoOutput14setOrientationEi@Base 6.2.1
 _ZN17QQuickVideoOutput14updateGeometryEv@Base 6.2.1
 _ZN17QQuickVideoOutput15fillModeChangedENS_8FillModeE@Base 6.2.1
 _ZN17QQuickVideoOutput15updatePaintNodeEP7QSGNodePN10QQuickItem19UpdatePaintNodeDataE@Base 6.2.1
 _ZN17QQuickVideoOutput16releaseResourcesEv@Base 6.2.1
 _ZN17QQuickVideoOutput16staticMetaObjectE@Base 6.2.1
 _ZN17QQuickVideoOutput17_q_updateGeometryEv@Base 6.2.1
 _ZN17QQuickVideoOutput17sourceRectChangedEv@Base 6.2.1
 _ZN17QQuickVideoOutput18contentRectChangedEv@Base 6.2.1
 _ZN17QQuickVideoOutput18orientationChangedEv@Base 6.2.1
 _ZN17QQuickVideoOutput20invalidateSceneGraphEv@Base 6.2.1
 _ZN17QQuickVideoOutput23_q_invalidateSceneGraphEv@Base 6.2.1
 _ZN17QQuickVideoOutput24_q_sceneGraphInitializedEv@Base 6.2.1
 _ZN17QQuickVideoOutput4stopEv@Base 6.2.1
 _ZN17QQuickVideoOutput8setFrameERK11QVideoFrame@Base 6.4.0
 _ZN17QQuickVideoOutputC1EP10QQuickItem@Base 6.2.1
 _ZN17QQuickVideoOutputC2EP10QQuickItem@Base 6.2.1
 _ZN17QQuickVideoOutputD0Ev@Base 6.2.1
 _ZN17QQuickVideoOutputD1Ev@Base 6.2.1
 _ZN17QQuickVideoOutputD2Ev@Base 6.2.1
 _ZN26QQuickImagePreviewProvider12requestImageERK7QStringP5QSizeRKS3_@Base 6.2.1
 _ZN26QQuickImagePreviewProvider15registerPreviewERK7QStringRK6QImage@Base 6.2.1
 _ZN26QQuickImagePreviewProviderC1Ev@Base 6.2.1
 _ZN26QQuickImagePreviewProviderC2Ev@Base 6.2.1
 _ZN26QQuickImagePreviewProviderD0Ev@Base 6.2.1
 _ZN26QQuickImagePreviewProviderD1Ev@Base 6.2.1
 _ZN26QQuickImagePreviewProviderD2Ev@Base 6.2.1
 _ZNK15QSGVideoTexture10hasMipmapsEv@Base 6.2.1
 _ZNK15QSGVideoTexture10rhiTextureEv@Base 6.2.1
 _ZNK15QSGVideoTexture11textureSizeEv@Base 6.2.1
 _ZNK15QSGVideoTexture13comparisonKeyEv@Base 6.2.1
 _ZNK15QSGVideoTexture15hasAlphaChannelEv@Base 6.2.1
 _ZNK17QQuickMediaPlayer10metaObjectEv@Base 6.2.4
 _ZNK17QQuickSoundEffect10metaObjectEv@Base 6.2.4
 _ZNK17QQuickVideoOutput10metaObjectEv@Base 6.2.1
 _ZNK17QQuickVideoOutput10nativeSizeEv@Base 6.2.1
 _ZNK17QQuickVideoOutput10sourceRectEv@Base 6.2.1
 _ZNK17QQuickVideoOutput11contentRectEv@Base 6.2.1
 _ZNK17QQuickVideoOutput11orientationEv@Base 6.2.1
 _ZNK17QQuickVideoOutput16adjustedViewportEv@Base 6.2.1
 _ZNK17QQuickVideoOutput8fillModeEv@Base 6.2.1
 _ZNK17QQuickVideoOutput9videoSinkEv@Base 6.2.1
 _ZTI15QSGVideoTexture@Base 6.2.1
 _ZTI17QQuickMediaPlayer@Base 6.2.4
 _ZTI17QQuickSoundEffect@Base 6.2.4
 _ZTI17QQuickVideoOutput@Base 6.2.1
 _ZTI26QQuickImagePreviewProvider@Base 6.2.1
 _ZTIZN9QMetaType17registerConverterI5QListI12QAudioDeviceE9QIterableI13QMetaSequenceEN9QtPrivate33QSequentialIterableConvertFunctorIS3_EEEEbT1_EUlPKvPvE_@Base 6.4.0
 _ZTIZN9QMetaType17registerConverterI5QListI12QMediaFormatE9QIterableI13QMetaSequenceEN9QtPrivate33QSequentialIterableConvertFunctorIS3_EEEEbT1_EUlPKvPvE_@Base 6.4.0
 _ZTIZN9QMetaType17registerConverterI5QListI13QCameraDeviceE9QIterableI13QMetaSequenceEN9QtPrivate33QSequentialIterableConvertFunctorIS3_EEEEbT1_EUlPKvPvE_@Base 6.4.0
 _ZTIZN9QMetaType17registerConverterI5QListI13QCameraFormatE9QIterableI13QMetaSequenceEN9QtPrivate33QSequentialIterableConvertFunctorIS3_EEEEbT1_EUlPKvPvE_@Base 6.4.0
 _ZTIZN9QMetaType17registerConverterI5QListI14QMediaMetaDataE9QIterableI13QMetaSequenceEN9QtPrivate33QSequentialIterableConvertFunctorIS3_EEEEbT1_EUlPKvPvE_@Base 6.4.0
 _ZTIZN9QMetaType19registerMutableViewI5QListI12QAudioDeviceE9QIterableI13QMetaSequenceEN9QtPrivate37QSequentialIterableMutableViewFunctorIS3_EEEEbT1_EUlPvSB_E_@Base 6.4.0
 _ZTIZN9QMetaType19registerMutableViewI5QListI12QMediaFormatE9QIterableI13QMetaSequenceEN9QtPrivate37QSequentialIterableMutableViewFunctorIS3_EEEEbT1_EUlPvSB_E_@Base 6.4.0
 _ZTIZN9QMetaType19registerMutableViewI5QListI13QCameraDeviceE9QIterableI13QMetaSequenceEN9QtPrivate37QSequentialIterableMutableViewFunctorIS3_EEEEbT1_EUlPvSB_E_@Base 6.4.0
 _ZTIZN9QMetaType19registerMutableViewI5QListI13QCameraFormatE9QIterableI13QMetaSequenceEN9QtPrivate37QSequentialIterableMutableViewFunctorIS3_EEEEbT1_EUlPvSB_E_@Base 6.4.0
 _ZTIZN9QMetaType19registerMutableViewI5QListI14QMediaMetaDataE9QIterableI13QMetaSequenceEN9QtPrivate37QSequentialIterableMutableViewFunctorIS3_EEEEbT1_EUlPvSB_E_@Base 6.4.0
 _ZTS15QSGVideoTexture@Base 6.2.1
 _ZTS17QQuickMediaPlayer@Base 6.2.4
 _ZTS17QQuickSoundEffect@Base 6.2.4
 _ZTS17QQuickVideoOutput@Base 6.2.1
 _ZTS26QQuickImagePreviewProvider@Base 6.2.1
 _ZTSZN9QMetaType17registerConverterI5QListI12QAudioDeviceE9QIterableI13QMetaSequenceEN9QtPrivate33QSequentialIterableConvertFunctorIS3_EEEEbT1_EUlPKvPvE_@Base 6.4.0
 _ZTSZN9QMetaType17registerConverterI5QListI12QMediaFormatE9QIterableI13QMetaSequenceEN9QtPrivate33QSequentialIterableConvertFunctorIS3_EEEEbT1_EUlPKvPvE_@Base 6.4.0
 _ZTSZN9QMetaType17registerConverterI5QListI13QCameraDeviceE9QIterableI13QMetaSequenceEN9QtPrivate33QSequentialIterableConvertFunctorIS3_EEEEbT1_EUlPKvPvE_@Base 6.4.0
 _ZTSZN9QMetaType17registerConverterI5QListI13QCameraFormatE9QIterableI13QMetaSequenceEN9QtPrivate33QSequentialIterableConvertFunctorIS3_EEEEbT1_EUlPKvPvE_@Base 6.4.0
 _ZTSZN9QMetaType17registerConverterI5QListI14QMediaMetaDataE9QIterableI13QMetaSequenceEN9QtPrivate33QSequentialIterableConvertFunctorIS3_EEEEbT1_EUlPKvPvE_@Base 6.4.0
 _ZTSZN9QMetaType19registerMutableViewI5QListI12QAudioDeviceE9QIterableI13QMetaSequenceEN9QtPrivate37QSequentialIterableMutableViewFunctorIS3_EEEEbT1_EUlPvSB_E_@Base 6.4.0
 _ZTSZN9QMetaType19registerMutableViewI5QListI12QMediaFormatE9QIterableI13QMetaSequenceEN9QtPrivate37QSequentialIterableMutableViewFunctorIS3_EEEEbT1_EUlPvSB_E_@Base 6.4.0
 _ZTSZN9QMetaType19registerMutableViewI5QListI13QCameraDeviceE9QIterableI13QMetaSequenceEN9QtPrivate37QSequentialIterableMutableViewFunctorIS3_EEEEbT1_EUlPvSB_E_@Base 6.4.0
 _ZTSZN9QMetaType19registerMutableViewI5QListI13QCameraFormatE9QIterableI13QMetaSequenceEN9QtPrivate37QSequentialIterableMutableViewFunctorIS3_EEEEbT1_EUlPvSB_E_@Base 6.4.0
 _ZTSZN9QMetaType19registerMutableViewI5QListI14QMediaMetaDataE9QIterableI13QMetaSequenceEN9QtPrivate37QSequentialIterableMutableViewFunctorIS3_EEEEbT1_EUlPvSB_E_@Base 6.4.0
 _ZTV15QSGVideoTexture@Base 6.2.1
 _ZTV17QQuickMediaPlayer@Base 6.2.4
 _ZTV17QQuickSoundEffect@Base 6.2.4
 _ZTV17QQuickVideoOutput@Base 6.2.1
 _ZTV26QQuickImagePreviewProvider@Base 6.2.1
 (optional=templinst)_ZZN9QMetaType21registerConverterImplI5QListI12QAudioDeviceE9QIterableI13QMetaSequenceEEEbSt8functionIFbPKvPvEES_S_E10unregister@Base 6.4.0
 (optional=templinst)_ZZN9QMetaType21registerConverterImplI5QListI12QMediaFormatE9QIterableI13QMetaSequenceEEEbSt8functionIFbPKvPvEES_S_E10unregister@Base 6.4.0
 (optional=templinst)_ZZN9QMetaType21registerConverterImplI5QListI13QCameraDeviceE9QIterableI13QMetaSequenceEEEbSt8functionIFbPKvPvEES_S_E10unregister@Base 6.4.0
 (optional=templinst)_ZZN9QMetaType21registerConverterImplI5QListI13QCameraFormatE9QIterableI13QMetaSequenceEEEbSt8functionIFbPKvPvEES_S_E10unregister@Base 6.4.0
 (optional=templinst)_ZZN9QMetaType21registerConverterImplI5QListI14QMediaMetaDataE9QIterableI13QMetaSequenceEEEbSt8functionIFbPKvPvEES_S_E10unregister@Base 6.4.0
 (optional=templinst)_ZZN9QMetaType23registerMutableViewImplI5QListI12QAudioDeviceE9QIterableI13QMetaSequenceEEEbSt8functionIFbPvS8_EES_S_E10unregister@Base 6.4.0
 (optional=templinst)_ZZN9QMetaType23registerMutableViewImplI5QListI12QMediaFormatE9QIterableI13QMetaSequenceEEEbSt8functionIFbPvS8_EES_S_E10unregister@Base 6.4.0
 (optional=templinst)_ZZN9QMetaType23registerMutableViewImplI5QListI13QCameraDeviceE9QIterableI13QMetaSequenceEEEbSt8functionIFbPvS8_EES_S_E10unregister@Base 6.4.0
 (optional=templinst)_ZZN9QMetaType23registerMutableViewImplI5QListI13QCameraFormatE9QIterableI13QMetaSequenceEEEbSt8functionIFbPvS8_EES_S_E10unregister@Base 6.4.0
 (optional=templinst)_ZZN9QMetaType23registerMutableViewImplI5QListI14QMediaMetaDataE9QIterableI13QMetaSequenceEEEbSt8functionIFbPvS8_EES_S_E10unregister@Base 6.4.0
 (c++)"non-virtual thunk to QQuickVideoOutput::~QQuickVideoOutput()@Base" 6.2.1
