# SymbolsHelper-Confirmed: 6.6.1 amd64
libQt6Multimedia.so.6 libqt6multimedia6 #MINVER#
* Build-Depends-Package: qt6-multimedia-dev
 Qt_6@Qt_6 6.6.1
 Qt_6_PRIVATE_API@Qt_6_PRIVATE_API 6.6.1
 _Z10qAlphaMaskN17QVideoFrameFormat11PixelFormatE@Qt_6 6.6.1
 _Z15qRealToFractiond@Qt_6 6.6.1
 _Z19qCalculateFrameSize5QSize8Fraction@Qt_6_PRIVATE_API 6.6.1
 _Z19qCopyPixelsWithMaskPjPKjmj@Qt_6 6.6.1
 _Z20qImageFromVideoFrameRK11QVideoFrameNS_13RotationAngleEbb@Qt_6 6.6.1
 _Z24qCopyPixelsWithAlphaMaskPjPKjmN17QVideoFrameFormat11PixelFormatEb@Qt_6 6.6.1
 _ZGVN25QPlatformMediaIntegration12notAvailableE@Qt_6_PRIVATE_API 6.6.1
 _ZGVZN9QMetaType21registerConverterImplI5QListI12QAudioDeviceE9QIterableI13QMetaSequenceEEEbSt8functionIFbPKvPvEES_S_E10unregister@Qt_6 6.6.1
 _ZGVZN9QMetaType21registerConverterImplI5QListI13QCameraDeviceE9QIterableI13QMetaSequenceEEEbSt8functionIFbPKvPvEES_S_E10unregister@Qt_6 6.6.1
 _ZGVZN9QMetaType21registerConverterImplI5QListI13QCameraFormatE9QIterableI13QMetaSequenceEEEbSt8functionIFbPKvPvEES_S_E10unregister@Qt_6 6.6.1
 _ZGVZN9QMetaType21registerConverterImplI5QListI14QMediaMetaDataE9QIterableI13QMetaSequenceEEEbSt8functionIFbPKvPvEES_S_E10unregister@Qt_6 6.6.1
 _ZGVZN9QMetaType21registerConverterImplI5QListI17QCapturableWindowE9QIterableI13QMetaSequenceEEEbSt8functionIFbPKvPvEES_S_E10unregister@Qt_6 6.6.1
 _ZGVZN9QMetaType21registerConverterImplI5QListIN12QMediaFormat10AudioCodecEE9QIterableI13QMetaSequenceEEEbSt8functionIFbPKvPvEES_S_E10unregister@Qt_6 6.6.1
 _ZGVZN9QMetaType21registerConverterImplI5QListIN12QMediaFormat10FileFormatEE9QIterableI13QMetaSequenceEEEbSt8functionIFbPKvPvEES_S_E10unregister@Qt_6 6.6.1
 _ZGVZN9QMetaType21registerConverterImplI5QListIN12QMediaFormat10VideoCodecEE9QIterableI13QMetaSequenceEEEbSt8functionIFbPKvPvEES_S_E10unregister@Qt_6 6.6.1
 _ZGVZN9QMetaType21registerConverterImplI5QListIN14QMediaMetaData3KeyEE9QIterableI13QMetaSequenceEEEbSt8functionIFbPKvPvEES_S_E10unregister@Qt_6 6.6.1
 _ZGVZN9QMetaType21registerConverterImplI8QPointerI7QScreenEP7QObjectEEbSt8functionIFbPKvPvEES_S_E10unregister@Qt_6 6.6.1
 _ZGVZN9QMetaType23registerMutableViewImplI5QListI12QAudioDeviceE9QIterableI13QMetaSequenceEEEbSt8functionIFbPvS8_EES_S_E10unregister@Qt_6 6.6.1
 _ZGVZN9QMetaType23registerMutableViewImplI5QListI13QCameraDeviceE9QIterableI13QMetaSequenceEEEbSt8functionIFbPvS8_EES_S_E10unregister@Qt_6 6.6.1
 _ZGVZN9QMetaType23registerMutableViewImplI5QListI13QCameraFormatE9QIterableI13QMetaSequenceEEEbSt8functionIFbPvS8_EES_S_E10unregister@Qt_6 6.6.1
 _ZGVZN9QMetaType23registerMutableViewImplI5QListI14QMediaMetaDataE9QIterableI13QMetaSequenceEEEbSt8functionIFbPvS8_EES_S_E10unregister@Qt_6 6.6.1
 _ZGVZN9QMetaType23registerMutableViewImplI5QListI17QCapturableWindowE9QIterableI13QMetaSequenceEEEbSt8functionIFbPvS8_EES_S_E10unregister@Qt_6 6.6.1
 _ZGVZN9QMetaType23registerMutableViewImplI5QListIN12QMediaFormat10AudioCodecEE9QIterableI13QMetaSequenceEEEbSt8functionIFbPvS9_EES_S_E10unregister@Qt_6 6.6.1
 _ZGVZN9QMetaType23registerMutableViewImplI5QListIN12QMediaFormat10FileFormatEE9QIterableI13QMetaSequenceEEEbSt8functionIFbPvS9_EES_S_E10unregister@Qt_6 6.6.1
 _ZGVZN9QMetaType23registerMutableViewImplI5QListIN12QMediaFormat10VideoCodecEE9QIterableI13QMetaSequenceEEEbSt8functionIFbPvS9_EES_S_E10unregister@Qt_6 6.6.1
 _ZGVZN9QMetaType23registerMutableViewImplI5QListIN14QMediaMetaData3KeyEE9QIterableI13QMetaSequenceEEEbSt8functionIFbPvS9_EES_S_E10unregister@Qt_6 6.6.1
 _ZN10QAudioSink11qt_metacallEN11QMetaObject4CallEiPPv@Qt_6 6.6.1
 _ZN10QAudioSink11qt_metacastEPKc@Qt_6 6.6.1
 _ZN10QAudioSink12stateChangedEN6QAudio5StateE@Qt_6 6.6.1
 _ZN10QAudioSink13setBufferSizeEx@Qt_6 6.6.1
 _ZN10QAudioSink16staticMetaObjectE@Qt_6 6.6.1
 _ZN10QAudioSink4stopEv@Qt_6 6.6.1
 _ZN10QAudioSink5resetEv@Qt_6 6.6.1
 _ZN10QAudioSink5startEP9QIODevice@Qt_6 6.6.1
 _ZN10QAudioSink5startEv@Qt_6 6.6.1
 _ZN10QAudioSink6resumeEv@Qt_6 6.6.1
 _ZN10QAudioSink7suspendEv@Qt_6 6.6.1
 _ZN10QAudioSink9setVolumeEd@Qt_6 6.6.1
 _ZN10QAudioSinkC1ERK12QAudioDeviceRK12QAudioFormatP7QObject@Qt_6 6.6.1
 _ZN10QAudioSinkC1ERK12QAudioFormatP7QObject@Qt_6 6.6.1
 _ZN10QAudioSinkC2ERK12QAudioDeviceRK12QAudioFormatP7QObject@Qt_6 6.6.1
 _ZN10QAudioSinkC2ERK12QAudioFormatP7QObject@Qt_6 6.6.1
 _ZN10QAudioSinkD0Ev@Qt_6 6.6.1
 _ZN10QAudioSinkD1Ev@Qt_6 6.6.1
 _ZN10QAudioSinkD2Ev@Qt_6 6.6.1
 _ZN10QVideoSink11qt_metacallEN11QMetaObject4CallEiPPv@Qt_6 6.6.1
 _ZN10QVideoSink11qt_metacastEPKc@Qt_6 6.6.1
 _ZN10QVideoSink13setVideoFrameERK11QVideoFrame@Qt_6 6.6.1
 _ZN10QVideoSink15setSubtitleTextERK7QString@Qt_6 6.6.1
 _ZN10QVideoSink16staticMetaObjectE@Qt_6 6.6.1
 _ZN10QVideoSink16videoSizeChangedEv@Qt_6 6.6.1
 _ZN10QVideoSink6setRhiEP4QRhi@Qt_6 6.6.1
 _ZN10QVideoSink9setSourceEP7QObject@Qt_6 6.6.1
 _ZN10QVideoSinkC1EP7QObject@Qt_6 6.6.1
 _ZN10QVideoSinkC2EP7QObject@Qt_6 6.6.1
 _ZN10QVideoSinkD0Ev@Qt_6 6.6.1
 _ZN10QVideoSinkD1Ev@Qt_6 6.6.1
 _ZN10QVideoSinkD2Ev@Qt_6 6.6.1
 _ZN11QAudioInput11qt_metacallEN11QMetaObject4CallEiPPv@Qt_6 6.6.1
 _ZN11QAudioInput11qt_metacastEPKc@Qt_6 6.6.1
 _ZN11QAudioInput12mutedChangedEb@Qt_6 6.6.1
 _ZN11QAudioInput13deviceChangedEv@Qt_6 6.6.1
 _ZN11QAudioInput13volumeChangedEf@Qt_6 6.6.1
 _ZN11QAudioInput16staticMetaObjectE@Qt_6 6.6.1
 _ZN11QAudioInput21setDisconnectFunctionESt8functionIFvvEE@Qt_6 6.6.1
 _ZN11QAudioInput8setMutedEb@Qt_6 6.6.1
 _ZN11QAudioInput9setDeviceERK12QAudioDevice@Qt_6 6.6.1
 _ZN11QAudioInput9setVolumeEf@Qt_6 6.6.1
 _ZN11QAudioInputC1EP7QObject@Qt_6 6.6.1
 _ZN11QAudioInputC1ERK12QAudioDeviceP7QObject@Qt_6 6.6.1
 _ZN11QAudioInputC2EP7QObject@Qt_6 6.6.1
 _ZN11QAudioInputC2ERK12QAudioDeviceP7QObject@Qt_6 6.6.1
 _ZN11QAudioInputD0Ev@Qt_6 6.6.1
 _ZN11QAudioInputD1Ev@Qt_6 6.6.1
 _ZN11QAudioInputD2Ev@Qt_6 6.6.1
 _ZN11QVideoFrame10setEndTimeEx@Qt_6 6.6.1
 _ZN11QVideoFrame11setMirroredEb@Qt_6 6.6.1
 _ZN11QVideoFrame12setStartTimeEx@Qt_6 6.6.1
 _ZN11QVideoFrame15setSubtitleTextERK7QString@Qt_6 6.6.1
 _ZN11QVideoFrame16setRotationAngleENS_13RotationAngleE@Qt_6 6.6.1
 _ZN11QVideoFrame3mapENS_7MapModeE@Qt_6 6.6.1
 _ZN11QVideoFrame4bitsEi@Qt_6 6.6.1
 _ZN11QVideoFrame5paintEP8QPainterRK6QRectFRKNS_12PaintOptionsE@Qt_6 6.6.1
 _ZN11QVideoFrame5unmapEv@Qt_6 6.6.1
 _ZN11QVideoFrameC1EP20QAbstractVideoBufferRK17QVideoFrameFormat@Qt_6_PRIVATE_API 6.6.1
 _ZN11QVideoFrameC1ERK17QVideoFrameFormat@Qt_6 6.6.1
 _ZN11QVideoFrameC1ERKS_@Qt_6 6.6.1
 _ZN11QVideoFrameC1Ev@Qt_6 6.6.1
 _ZN11QVideoFrameC2EP20QAbstractVideoBufferRK17QVideoFrameFormat@Qt_6_PRIVATE_API 6.6.1
 _ZN11QVideoFrameC2ERK17QVideoFrameFormat@Qt_6 6.6.1
 _ZN11QVideoFrameC2ERKS_@Qt_6 6.6.1
 _ZN11QVideoFrameC2Ev@Qt_6 6.6.1
 _ZN11QVideoFrameD1Ev@Qt_6 6.6.1
 _ZN11QVideoFrameD2Ev@Qt_6 6.6.1
 _ZN11QVideoFrameaSERKS_@Qt_6 6.6.1
 _ZN12QAudioBuffer4dataEv@Qt_6 6.6.1
 _ZN12QAudioBuffer6detachEv@Qt_6 6.6.1
 _ZN12QAudioBufferC1ERK10QByteArrayRK12QAudioFormatx@Qt_6 6.6.1
 _ZN12QAudioBufferC1ERKS_@Qt_6 6.6.1
 _ZN12QAudioBufferC1EiRK12QAudioFormatx@Qt_6 6.6.1
 _ZN12QAudioBufferC1Ev@Qt_6 6.6.1
 _ZN12QAudioBufferC2ERK10QByteArrayRK12QAudioFormatx@Qt_6 6.6.1
 _ZN12QAudioBufferC2ERKS_@Qt_6 6.6.1
 _ZN12QAudioBufferC2EiRK12QAudioFormatx@Qt_6 6.6.1
 _ZN12QAudioBufferC2Ev@Qt_6 6.6.1
 _ZN12QAudioBufferD1Ev@Qt_6 6.6.1
 _ZN12QAudioBufferD2Ev@Qt_6 6.6.1
 _ZN12QAudioBufferaSERKS_@Qt_6 6.6.1
 _ZN12QAudioDevice16staticMetaObjectE@Qt_6 6.6.1
 _ZN12QAudioDeviceC1EP19QAudioDevicePrivate@Qt_6_PRIVATE_API 6.6.1
 _ZN12QAudioDeviceC1ERKS_@Qt_6 6.6.1
 _ZN12QAudioDeviceC1Ev@Qt_6 6.6.1
 _ZN12QAudioDeviceC2EP19QAudioDevicePrivate@Qt_6_PRIVATE_API 6.6.1
 _ZN12QAudioDeviceC2ERKS_@Qt_6 6.6.1
 _ZN12QAudioDeviceC2Ev@Qt_6 6.6.1
 _ZN12QAudioDeviceD1Ev@Qt_6 6.6.1
 _ZN12QAudioDeviceD2Ev@Qt_6 6.6.1
 _ZN12QAudioDeviceaSERKS_@Qt_6 6.6.1
 _ZN12QAudioFormat16setChannelConfigENS_13ChannelConfigE@Qt_6 6.6.1
 _ZN12QAudioFormat35defaultChannelConfigForChannelCountEi@Qt_6 6.6.1
 _ZN12QAudioOutput11qt_metacallEN11QMetaObject4CallEiPPv@Qt_6 6.6.1
 _ZN12QAudioOutput11qt_metacastEPKc@Qt_6 6.6.1
 _ZN12QAudioOutput12mutedChangedEb@Qt_6 6.6.1
 _ZN12QAudioOutput13deviceChangedEv@Qt_6 6.6.1
 _ZN12QAudioOutput13volumeChangedEf@Qt_6 6.6.1
 _ZN12QAudioOutput16staticMetaObjectE@Qt_6 6.6.1
 _ZN12QAudioOutput21setDisconnectFunctionESt8functionIFvvEE@Qt_6 6.6.1
 _ZN12QAudioOutput8setMutedEb@Qt_6 6.6.1
 _ZN12QAudioOutput9setDeviceERK12QAudioDevice@Qt_6 6.6.1
 _ZN12QAudioOutput9setVolumeEf@Qt_6 6.6.1
 _ZN12QAudioOutputC1EP7QObject@Qt_6 6.6.1
 _ZN12QAudioOutputC1ERK12QAudioDeviceP7QObject@Qt_6 6.6.1
 _ZN12QAudioOutputC2EP7QObject@Qt_6 6.6.1
 _ZN12QAudioOutputC2ERK12QAudioDeviceP7QObject@Qt_6 6.6.1
 _ZN12QAudioOutputD0Ev@Qt_6 6.6.1
 _ZN12QAudioOutputD1Ev@Qt_6 6.6.1
 _ZN12QAudioOutputD2Ev@Qt_6 6.6.1
 _ZN12QAudioSource11qt_metacallEN11QMetaObject4CallEiPPv@Qt_6 6.6.1
 _ZN12QAudioSource11qt_metacastEPKc@Qt_6 6.6.1
 _ZN12QAudioSource12stateChangedEN6QAudio5StateE@Qt_6 6.6.1
 _ZN12QAudioSource13setBufferSizeEx@Qt_6 6.6.1
 _ZN12QAudioSource16staticMetaObjectE@Qt_6 6.6.1
 _ZN12QAudioSource4stopEv@Qt_6 6.6.1
 _ZN12QAudioSource5resetEv@Qt_6 6.6.1
 _ZN12QAudioSource5startEP9QIODevice@Qt_6 6.6.1
 _ZN12QAudioSource5startEv@Qt_6 6.6.1
 _ZN12QAudioSource6resumeEv@Qt_6 6.6.1
 _ZN12QAudioSource7suspendEv@Qt_6 6.6.1
 _ZN12QAudioSource9setVolumeEd@Qt_6 6.6.1
 _ZN12QAudioSourceC1ERK12QAudioDeviceRK12QAudioFormatP7QObject@Qt_6 6.6.1
 _ZN12QAudioSourceC1ERK12QAudioFormatP7QObject@Qt_6 6.6.1
 _ZN12QAudioSourceC2ERK12QAudioDeviceRK12QAudioFormatP7QObject@Qt_6 6.6.1
 _ZN12QAudioSourceC2ERK12QAudioFormatP7QObject@Qt_6 6.6.1
 _ZN12QAudioSourceD0Ev@Qt_6 6.6.1
 _ZN12QAudioSourceD1Ev@Qt_6 6.6.1
 _ZN12QAudioSourceD2Ev@Qt_6 6.6.1
 _ZN12QMediaFormat14audioCodecNameENS_10AudioCodecE@Qt_6 6.6.1
 _ZN12QMediaFormat14fileFormatNameENS_10FileFormatE@Qt_6 6.6.1
 _ZN12QMediaFormat14videoCodecNameENS_10VideoCodecE@Qt_6 6.6.1
 _ZN12QMediaFormat16staticMetaObjectE@Qt_6 6.6.1
 _ZN12QMediaFormat18resolveForEncodingENS_12ResolveFlagsE@Qt_6 6.6.1
 _ZN12QMediaFormat20supportedAudioCodecsENS_14ConversionModeE@Qt_6 6.6.1
 _ZN12QMediaFormat20supportedFileFormatsENS_14ConversionModeE@Qt_6 6.6.1
 _ZN12QMediaFormat20supportedVideoCodecsENS_14ConversionModeE@Qt_6 6.6.1
 _ZN12QMediaFormat21audioCodecDescriptionENS_10AudioCodecE@Qt_6 6.6.1
 _ZN12QMediaFormat21fileFormatDescriptionENS_10FileFormatE@Qt_6 6.6.1
 _ZN12QMediaFormat21videoCodecDescriptionENS_10VideoCodecE@Qt_6 6.6.1
 _ZN12QMediaFormatC1ENS_10FileFormatE@Qt_6 6.6.1
 _ZN12QMediaFormatC1ERKS_@Qt_6 6.6.1
 _ZN12QMediaFormatC2ENS_10FileFormatE@Qt_6 6.6.1
 _ZN12QMediaFormatC2ERKS_@Qt_6 6.6.1
 _ZN12QMediaFormatD1Ev@Qt_6 6.6.1
 _ZN12QMediaFormatD2Ev@Qt_6 6.6.1
 _ZN12QMediaFormataSERKS_@Qt_6 6.6.1
 _ZN12QMediaPlayer11qt_metacallEN11QMetaObject4CallEiPPv@Qt_6 6.6.1
 _ZN12QMediaPlayer11qt_metacastEPKc@Qt_6 6.6.1
 _ZN12QMediaPlayer11setPositionEx@Qt_6 6.6.1
 _ZN12QMediaPlayer12errorChangedEv@Qt_6 6.6.1
 _ZN12QMediaPlayer12loopsChangedEv@Qt_6 6.6.1
 _ZN12QMediaPlayer12setVideoSinkEP10QVideoSink@Qt_6 6.6.1
 _ZN12QMediaPlayer13errorOccurredENS_5ErrorERK7QString@Qt_6 6.6.1
 _ZN12QMediaPlayer13sourceChangedERK4QUrl@Qt_6 6.6.1
 _ZN12QMediaPlayer13tracksChangedEv@Qt_6 6.6.1
 _ZN12QMediaPlayer14playingChangedEb@Qt_6 6.6.1
 _ZN12QMediaPlayer14setAudioOutputEP12QAudioOutput@Qt_6 6.6.1
 _ZN12QMediaPlayer14setVideoOutputEP7QObject@Qt_6 6.6.1
 _ZN12QMediaPlayer15durationChangedEx@Qt_6 6.6.1
 _ZN12QMediaPlayer15hasAudioChangedEb@Qt_6 6.6.1
 _ZN12QMediaPlayer15hasVideoChangedEb@Qt_6 6.6.1
 _ZN12QMediaPlayer15metaDataChangedEv@Qt_6 6.6.1
 _ZN12QMediaPlayer15positionChangedEx@Qt_6 6.6.1
 _ZN12QMediaPlayer15seekableChangedEb@Qt_6 6.6.1
 _ZN12QMediaPlayer15setPlaybackRateEd@Qt_6 6.6.1
 _ZN12QMediaPlayer15setSourceDeviceEP9QIODeviceRK4QUrl@Qt_6 6.6.1
 _ZN12QMediaPlayer16staticMetaObjectE@Qt_6 6.6.1
 _ZN12QMediaPlayer18audioOutputChangedEv@Qt_6 6.6.1
 _ZN12QMediaPlayer18mediaStatusChangedENS_11MediaStatusE@Qt_6 6.6.1
 _ZN12QMediaPlayer18videoOutputChangedEv@Qt_6 6.6.1
 _ZN12QMediaPlayer19activeTracksChangedEv@Qt_6 6.6.1
 _ZN12QMediaPlayer19playbackRateChangedEd@Qt_6 6.6.1
 _ZN12QMediaPlayer19setActiveAudioTrackEi@Qt_6 6.6.1
 _ZN12QMediaPlayer19setActiveVideoTrackEi@Qt_6 6.6.1
 _ZN12QMediaPlayer20playbackStateChangedENS_13PlaybackStateE@Qt_6 6.6.1
 _ZN12QMediaPlayer21bufferProgressChangedEf@Qt_6 6.6.1
 _ZN12QMediaPlayer22setActiveSubtitleTrackEi@Qt_6 6.6.1
 _ZN12QMediaPlayer4playEv@Qt_6 6.6.1
 _ZN12QMediaPlayer4stopEv@Qt_6 6.6.1
 _ZN12QMediaPlayer5pauseEv@Qt_6 6.6.1
 _ZN12QMediaPlayer8setLoopsEi@Qt_6 6.6.1
 _ZN12QMediaPlayer9setSourceERK4QUrl@Qt_6 6.6.1
 _ZN12QMediaPlayerC1EP7QObject@Qt_6 6.6.1
 _ZN12QMediaPlayerC2EP7QObject@Qt_6 6.6.1
 _ZN12QMediaPlayerD0Ev@Qt_6 6.6.1
 _ZN12QMediaPlayerD1Ev@Qt_6 6.6.1
 _ZN12QMediaPlayerD2Ev@Qt_6 6.6.1
 _ZN12QSampleCache11qt_metacallEN11QMetaObject4CallEiPPv@Qt_6_PRIVATE_API 6.6.1
 _ZN12QSampleCache11qt_metacastEPKc@Qt_6_PRIVATE_API 6.6.1
 _ZN12QSampleCache11setCapacityEx@Qt_6_PRIVATE_API 6.6.1
 _ZN12QSampleCache12unloadSampleEP7QSample@Qt_6_PRIVATE_API 6.6.1
 _ZN12QSampleCache13requestSampleERK4QUrl@Qt_6_PRIVATE_API 6.6.1
 _ZN12QSampleCache14loadingReleaseEv@Qt_6_PRIVATE_API 6.6.1
 _ZN12QSampleCache16staticMetaObjectE@Qt_6_PRIVATE_API 6.6.1
 _ZN12QSampleCache20networkAccessManagerEv@Qt_6_PRIVATE_API 6.6.1
 _ZN12QSampleCache24notifyUnreferencedSampleEP7QSample@Qt_6_PRIVATE_API 6.6.1
 _ZN12QSampleCache24removeUnreferencedSampleEP7QSample@Qt_6_PRIVATE_API 6.6.1
 _ZN12QSampleCache7refreshEx@Qt_6_PRIVATE_API 6.6.1
 _ZN12QSampleCacheC1EP7QObject@Qt_6_PRIVATE_API 6.6.1
 _ZN12QSampleCacheC2EP7QObject@Qt_6_PRIVATE_API 6.6.1
 _ZN12QSampleCacheD0Ev@Qt_6_PRIVATE_API 6.6.1
 _ZN12QSampleCacheD1Ev@Qt_6_PRIVATE_API 6.6.1
 _ZN12QSampleCacheD2Ev@Qt_6_PRIVATE_API 6.6.1
 _ZN12QSoundEffect11audioDeviceEv@Qt_6 6.6.1
 _ZN12QSoundEffect11qt_metacallEN11QMetaObject4CallEiPPv@Qt_6 6.6.1
 _ZN12QSoundEffect11qt_metacastEPKc@Qt_6 6.6.1
 _ZN12QSoundEffect12mutedChangedEv@Qt_6 6.6.1
 _ZN12QSoundEffect12setLoopCountEi@Qt_6 6.6.1
 _ZN12QSoundEffect13loadedChangedEv@Qt_6 6.6.1
 _ZN12QSoundEffect13sourceChangedEv@Qt_6 6.6.1
 _ZN12QSoundEffect13statusChangedEv@Qt_6 6.6.1
 _ZN12QSoundEffect13volumeChangedEv@Qt_6 6.6.1
 _ZN12QSoundEffect14playingChangedEv@Qt_6 6.6.1
 _ZN12QSoundEffect14setAudioDeviceERK12QAudioDevice@Qt_6 6.6.1
 _ZN12QSoundEffect16loopCountChangedEv@Qt_6 6.6.1
 _ZN12QSoundEffect16staticMetaObjectE@Qt_6 6.6.1
 _ZN12QSoundEffect18audioDeviceChangedEv@Qt_6 6.6.1
 _ZN12QSoundEffect18supportedMimeTypesEv@Qt_6 6.6.1
 _ZN12QSoundEffect21loopsRemainingChangedEv@Qt_6 6.6.1
 _ZN12QSoundEffect4playEv@Qt_6 6.6.1
 _ZN12QSoundEffect4stopEv@Qt_6 6.6.1
 _ZN12QSoundEffect8setMutedEb@Qt_6 6.6.1
 _ZN12QSoundEffect9setSourceERK4QUrl@Qt_6 6.6.1
 _ZN12QSoundEffect9setVolumeEf@Qt_6 6.6.1
 _ZN12QSoundEffectC1EP7QObject@Qt_6 6.6.1
 _ZN12QSoundEffectC1ERK12QAudioDeviceP7QObject@Qt_6 6.6.1
 _ZN12QSoundEffectC2EP7QObject@Qt_6 6.6.1
 _ZN12QSoundEffectC2ERK12QAudioDeviceP7QObject@Qt_6 6.6.1
 _ZN12QSoundEffectD0Ev@Qt_6 6.6.1
 _ZN12QSoundEffectD1Ev@Qt_6 6.6.1
 _ZN12QSoundEffectD2Ev@Qt_6 6.6.1
 _ZN12QVideoWindow11qt_metacallEN11QMetaObject4CallEiPPv@Qt_6_PRIVATE_API 6.6.1
 _ZN12QVideoWindow11qt_metacastEPKc@Qt_6_PRIVATE_API 6.6.1
 _ZN12QVideoWindow11resizeEventEP12QResizeEvent@Qt_6_PRIVATE_API 6.6.1
 _ZN12QVideoWindow13setVideoFrameERK11QVideoFrame@Qt_6_PRIVATE_API 6.6.1
 _ZN12QVideoWindow16staticMetaObjectE@Qt_6_PRIVATE_API 6.6.1
 _ZN12QVideoWindow18setAspectRatioModeEN2Qt15AspectRatioModeE@Qt_6_PRIVATE_API 6.6.1
 _ZN12QVideoWindow22aspectRatioModeChangedEN2Qt15AspectRatioModeE@Qt_6_PRIVATE_API 6.6.1
 _ZN12QVideoWindow5eventEP6QEvent@Qt_6_PRIVATE_API 6.6.1
 _ZN12QVideoWindowC1EP7QScreen@Qt_6_PRIVATE_API 6.6.1
 _ZN12QVideoWindowC1EP7QWindow@Qt_6_PRIVATE_API 6.6.1
 _ZN12QVideoWindowC2EP7QScreen@Qt_6_PRIVATE_API 6.6.1
 _ZN12QVideoWindowC2EP7QWindow@Qt_6_PRIVATE_API 6.6.1
 _ZN12QVideoWindowD0Ev@Qt_6_PRIVATE_API 6.6.1
 _ZN12QVideoWindowD1Ev@Qt_6_PRIVATE_API 6.6.1
 _ZN12QVideoWindowD2Ev@Qt_6_PRIVATE_API 6.6.1
 _ZN12QWaveDecoder10handleDataEv@Qt_6 6.6.1
 _ZN12QWaveDecoder11formatKnownEv@Qt_6 6.6.1
 _ZN12QWaveDecoder11qt_metacallEN11QMetaObject4CallEiPPv@Qt_6 6.6.1
 _ZN12QWaveDecoder11qt_metacastEPKc@Qt_6 6.6.1
 _ZN12QWaveDecoder11writeHeaderEv@Qt_6 6.6.1
 _ZN12QWaveDecoder12discardBytesEx@Qt_6 6.6.1
 _ZN12QWaveDecoder12headerLengthEv@Qt_6 6.6.1
 _ZN12QWaveDecoder12parsingErrorEv@Qt_6 6.6.1
 _ZN12QWaveDecoder13parsingFailedEv@Qt_6 6.6.1
 _ZN12QWaveDecoder15writeDataLengthEv@Qt_6 6.6.1
 _ZN12QWaveDecoder16staticMetaObjectE@Qt_6 6.6.1
 _ZN12QWaveDecoder19enoughDataAvailableEv@Qt_6 6.6.1
 _ZN12QWaveDecoder4openE6QFlagsIN13QIODeviceBase12OpenModeFlagEE@Qt_6 6.6.1
 _ZN12QWaveDecoder4seekEx@Qt_6 6.6.1
 _ZN12QWaveDecoder5closeEv@Qt_6 6.6.1
 _ZN12QWaveDecoder8readDataEPcx@Qt_6 6.6.1
 _ZN12QWaveDecoder9findChunkEPKc@Qt_6 6.6.1
 _ZN12QWaveDecoder9getDeviceEv@Qt_6 6.6.1
 _ZN12QWaveDecoder9peekChunkEPNS_5chunkEb@Qt_6 6.6.1
 _ZN12QWaveDecoder9writeDataEPKcx@Qt_6 6.6.1
 _ZN12QWaveDecoderC1EP9QIODeviceP7QObject@Qt_6 6.6.1
 _ZN12QWaveDecoderC1EP9QIODeviceRK12QAudioFormatP7QObject@Qt_6 6.6.1
 _ZN12QWaveDecoderC2EP9QIODeviceP7QObject@Qt_6 6.6.1
 _ZN12QWaveDecoderC2EP9QIODeviceRK12QAudioFormatP7QObject@Qt_6 6.6.1
 _ZN12QWaveDecoderD0Ev@Qt_6 6.6.1
 _ZN12QWaveDecoderD1Ev@Qt_6 6.6.1
 _ZN12QWaveDecoderD2Ev@Qt_6 6.6.1
 _ZN13QAudioDecoder11bufferReadyEv@Qt_6 6.6.1
 _ZN13QAudioDecoder11qt_metacallEN11QMetaObject4CallEiPPv@Qt_6 6.6.1
 _ZN13QAudioDecoder11qt_metacastEPKc@Qt_6 6.6.1
 _ZN13QAudioDecoder13formatChangedERK12QAudioFormat@Qt_6 6.6.1
 _ZN13QAudioDecoder13sourceChangedEv@Qt_6 6.6.1
 _ZN13QAudioDecoder14setAudioFormatERK12QAudioFormat@Qt_6 6.6.1
 _ZN13QAudioDecoder15durationChangedEx@Qt_6 6.6.1
 _ZN13QAudioDecoder15positionChangedEx@Qt_6 6.6.1
 _ZN13QAudioDecoder15setSourceDeviceEP9QIODevice@Qt_6 6.6.1
 _ZN13QAudioDecoder16staticMetaObjectE@Qt_6 6.6.1
 _ZN13QAudioDecoder17isDecodingChangedEb@Qt_6 6.6.1
 _ZN13QAudioDecoder22bufferAvailableChangedEb@Qt_6 6.6.1
 _ZN13QAudioDecoder4stopEv@Qt_6 6.6.1
 _ZN13QAudioDecoder5errorENS_5ErrorE@Qt_6 6.6.1
 _ZN13QAudioDecoder5startEv@Qt_6 6.6.1
 _ZN13QAudioDecoder8finishedEv@Qt_6 6.6.1
 _ZN13QAudioDecoder9setSourceERK4QUrl@Qt_6 6.6.1
 _ZN13QAudioDecoderC1EP7QObject@Qt_6 6.6.1
 _ZN13QAudioDecoderC2EP7QObject@Qt_6 6.6.1
 _ZN13QAudioDecoderD0Ev@Qt_6 6.6.1
 _ZN13QAudioDecoderD1Ev@Qt_6 6.6.1
 _ZN13QAudioDecoderD2Ev@Qt_6 6.6.1
 _ZN13QCameraDevice16staticMetaObjectE@Qt_6 6.6.1
 _ZN13QCameraDeviceC1EP20QCameraDevicePrivate@Qt_6_PRIVATE_API 6.6.1
 _ZN13QCameraDeviceC1ERKS_@Qt_6 6.6.1
 _ZN13QCameraDeviceC1Ev@Qt_6 6.6.1
 _ZN13QCameraDeviceC2EP20QCameraDevicePrivate@Qt_6_PRIVATE_API 6.6.1
 _ZN13QCameraDeviceC2ERKS_@Qt_6 6.6.1
 _ZN13QCameraDeviceC2Ev@Qt_6 6.6.1
 _ZN13QCameraDeviceD1Ev@Qt_6 6.6.1
 _ZN13QCameraDeviceD2Ev@Qt_6 6.6.1
 _ZN13QCameraDeviceaSERKS_@Qt_6 6.6.1
 _ZN13QCameraFormat16staticMetaObjectE@Qt_6 6.6.1
 _ZN13QCameraFormatC1EP20QCameraFormatPrivate@Qt_6_PRIVATE_API 6.6.1
 _ZN13QCameraFormatC1ERKS_@Qt_6 6.6.1
 _ZN13QCameraFormatC1Ev@Qt_6 6.6.1
 _ZN13QCameraFormatC2EP20QCameraFormatPrivate@Qt_6_PRIVATE_API 6.6.1
 _ZN13QCameraFormatC2ERKS_@Qt_6 6.6.1
 _ZN13QCameraFormatC2Ev@Qt_6 6.6.1
 _ZN13QCameraFormatD1Ev@Qt_6 6.6.1
 _ZN13QCameraFormatD2Ev@Qt_6 6.6.1
 _ZN13QCameraFormataSERKS_@Qt_6 6.6.1
 _ZN13QImageCapture10imageSavedEiRK7QString@Qt_6 6.6.1
 _ZN13QImageCapture10setQualityENS_7QualityE@Qt_6 6.6.1
 _ZN13QImageCapture11addMetaDataERK14QMediaMetaData@Qt_6 6.6.1
 _ZN13QImageCapture11qt_metacallEN11QMetaObject4CallEiPPv@Qt_6 6.6.1
 _ZN13QImageCapture11qt_metacastEPKc@Qt_6 6.6.1
 _ZN13QImageCapture11setMetaDataERK14QMediaMetaData@Qt_6 6.6.1
 _ZN13QImageCapture12errorChangedEv@Qt_6 6.6.1
 _ZN13QImageCapture12imageExposedEi@Qt_6 6.6.1
 _ZN13QImageCapture13captureToFileERK7QString@Qt_6 6.6.1
 _ZN13QImageCapture13errorOccurredEiNS_5ErrorERK7QString@Qt_6 6.6.1
 _ZN13QImageCapture13imageCapturedEiRK6QImage@Qt_6 6.6.1
 _ZN13QImageCapture13setFileFormatENS_10FileFormatE@Qt_6 6.6.1
 _ZN13QImageCapture13setResolutionERK5QSize@Qt_6 6.6.1
 _ZN13QImageCapture13setResolutionEii@Qt_6 6.6.1
 _ZN13QImageCapture14fileFormatNameENS_10FileFormatE@Qt_6 6.6.1
 _ZN13QImageCapture14imageAvailableEiRK11QVideoFrame@Qt_6 6.6.1
 _ZN13QImageCapture14qualityChangedEv@Qt_6 6.6.1
 _ZN13QImageCapture15metaDataChangedEv@Qt_6 6.6.1
 _ZN13QImageCapture16staticMetaObjectE@Qt_6 6.6.1
 _ZN13QImageCapture16supportedFormatsEv@Qt_6 6.6.1
 _ZN13QImageCapture17fileFormatChangedEv@Qt_6 6.6.1
 _ZN13QImageCapture17resolutionChangedEv@Qt_6 6.6.1
 _ZN13QImageCapture17setCaptureSessionEP20QMediaCaptureSession@Qt_6 6.6.1
 _ZN13QImageCapture20platformImageCaptureEv@Qt_6 6.6.1
 _ZN13QImageCapture21fileFormatDescriptionENS_10FileFormatE@Qt_6 6.6.1
 _ZN13QImageCapture22imageMetadataAvailableEiRK14QMediaMetaData@Qt_6 6.6.1
 _ZN13QImageCapture22readyForCaptureChangedEb@Qt_6 6.6.1
 _ZN13QImageCapture7captureEv@Qt_6 6.6.1
 _ZN13QImageCaptureC1EP7QObject@Qt_6 6.6.1
 _ZN13QImageCaptureC2EP7QObject@Qt_6 6.6.1
 _ZN13QImageCaptureD0Ev@Qt_6 6.6.1
 _ZN13QImageCaptureD1Ev@Qt_6 6.6.1
 _ZN13QImageCaptureD2Ev@Qt_6 6.6.1
 _ZN13QMediaDevices11audioInputsEv@Qt_6 6.6.1
 _ZN13QMediaDevices11qt_metacallEN11QMetaObject4CallEiPPv@Qt_6 6.6.1
 _ZN13QMediaDevices11qt_metacastEPKc@Qt_6 6.6.1
 _ZN13QMediaDevices11videoInputsEv@Qt_6 6.6.1
 _ZN13QMediaDevices12audioOutputsEv@Qt_6 6.6.1
 _ZN13QMediaDevices13connectNotifyERK11QMetaMethod@Qt_6 6.6.1
 _ZN13QMediaDevices16staticMetaObjectE@Qt_6 6.6.1
 _ZN13QMediaDevices17defaultAudioInputEv@Qt_6 6.6.1
 _ZN13QMediaDevices17defaultVideoInputEv@Qt_6 6.6.1
 _ZN13QMediaDevices18audioInputsChangedEv@Qt_6 6.6.1
 _ZN13QMediaDevices18defaultAudioOutputEv@Qt_6 6.6.1
 _ZN13QMediaDevices18videoInputsChangedEv@Qt_6 6.6.1
 _ZN13QMediaDevices19audioOutputsChangedEv@Qt_6 6.6.1
 _ZN13QMediaDevicesC1EP7QObject@Qt_6 6.6.1
 _ZN13QMediaDevicesC2EP7QObject@Qt_6 6.6.1
 _ZN13QMediaDevicesD0Ev@Qt_6 6.6.1
 _ZN13QMediaDevicesD1Ev@Qt_6 6.6.1
 _ZN13QMediaDevicesD2Ev@Qt_6 6.6.1
 _ZN13QMetaSequence12MetaSequenceI5QListI12QAudioDeviceEE5valueE@Qt_6 6.6.1
 _ZN13QMetaSequence12MetaSequenceI5QListI13QCameraDeviceEE5valueE@Qt_6 6.6.1
 _ZN13QMetaSequence12MetaSequenceI5QListI13QCameraFormatEE5valueE@Qt_6 6.6.1
 _ZN13QMetaSequence12MetaSequenceI5QListI14QMediaMetaDataEE5valueE@Qt_6 6.6.1
 _ZN13QMetaSequence12MetaSequenceI5QListI17QCapturableWindowEE5valueE@Qt_6 6.6.1
 _ZN13QMetaSequence12MetaSequenceI5QListIN12QMediaFormat10AudioCodecEEE5valueE@Qt_6 6.6.1
 _ZN13QMetaSequence12MetaSequenceI5QListIN12QMediaFormat10FileFormatEEE5valueE@Qt_6 6.6.1
 _ZN13QMetaSequence12MetaSequenceI5QListIN12QMediaFormat10VideoCodecEEE5valueE@Qt_6 6.6.1
 _ZN13QMetaSequence12MetaSequenceI5QListIN14QMediaMetaData3KeyEEE5valueE@Qt_6 6.6.1
 _ZN14QMediaMetaData16staticMetaObjectE@Qt_6 6.6.1
 _ZN14QMediaMetaData19metaDataKeyToStringENS_3KeyE@Qt_6 6.6.1
 _ZN14QMediaMetaData7keyTypeENS_3KeyE@Qt_6 6.6.1
 _ZN14QMediaRecorder10setQualityENS_7QualityE@Qt_6 6.6.1
 _ZN14QMediaRecorder11addMetaDataERK14QMediaMetaData@Qt_6 6.6.1
 _ZN14QMediaRecorder11qt_metacallEN11QMetaObject4CallEiPPv@Qt_6 6.6.1
 _ZN14QMediaRecorder11qt_metacastEPKc@Qt_6 6.6.1
 _ZN14QMediaRecorder11setMetaDataERK14QMediaMetaData@Qt_6 6.6.1
 _ZN14QMediaRecorder12errorChangedEv@Qt_6 6.6.1
 _ZN14QMediaRecorder13errorOccurredENS_5ErrorERK7QString@Qt_6 6.6.1
 _ZN14QMediaRecorder14qualityChangedEv@Qt_6 6.6.1
 _ZN14QMediaRecorder14setMediaFormatERK12QMediaFormat@Qt_6 6.6.1
 _ZN14QMediaRecorder15durationChangedEx@Qt_6 6.6.1
 _ZN14QMediaRecorder15metaDataChangedEv@Qt_6 6.6.1
 _ZN14QMediaRecorder15setAudioBitRateEi@Qt_6 6.6.1
 _ZN14QMediaRecorder15setEncodingModeENS_12EncodingModeE@Qt_6 6.6.1
 _ZN14QMediaRecorder15setVideoBitRateEi@Qt_6 6.6.1
 _ZN14QMediaRecorder16staticMetaObjectE@Qt_6 6.6.1
 _ZN14QMediaRecorder17setCaptureSessionEP20QMediaCaptureSession@Qt_6 6.6.1
 _ZN14QMediaRecorder17setOutputLocationERK4QUrl@Qt_6 6.6.1
 _ZN14QMediaRecorder17setVideoFrameRateEd@Qt_6 6.6.1
 _ZN14QMediaRecorder18mediaFormatChangedEv@Qt_6 6.6.1
 _ZN14QMediaRecorder18setAudioSampleRateEi@Qt_6 6.6.1
 _ZN14QMediaRecorder18setVideoResolutionERK5QSize@Qt_6 6.6.1
 _ZN14QMediaRecorder19audioBitRateChangedEv@Qt_6 6.6.1
 _ZN14QMediaRecorder19encodingModeChangedEv@Qt_6 6.6.1
 _ZN14QMediaRecorder19videoBitRateChangedEv@Qt_6 6.6.1
 _ZN14QMediaRecorder20recorderStateChangedENS_13RecorderStateE@Qt_6 6.6.1
 _ZN14QMediaRecorder20setAudioChannelCountEi@Qt_6 6.6.1
 _ZN14QMediaRecorder21actualLocationChangedERK4QUrl@Qt_6 6.6.1
 _ZN14QMediaRecorder21videoFrameRateChangedEv@Qt_6 6.6.1
 _ZN14QMediaRecorder22audioSampleRateChangedEv@Qt_6 6.6.1
 _ZN14QMediaRecorder22encoderSettingsChangedEv@Qt_6 6.6.1
 _ZN14QMediaRecorder22videoResolutionChangedEv@Qt_6 6.6.1
 _ZN14QMediaRecorder24audioChannelCountChangedEv@Qt_6 6.6.1
 _ZN14QMediaRecorder4stopEv@Qt_6 6.6.1
 _ZN14QMediaRecorder5pauseEv@Qt_6 6.6.1
 _ZN14QMediaRecorder6recordEv@Qt_6 6.6.1
 _ZN14QMediaRecorderC1EP7QObject@Qt_6 6.6.1
 _ZN14QMediaRecorderC2EP7QObject@Qt_6 6.6.1
 _ZN14QMediaRecorderD0Ev@Qt_6 6.6.1
 _ZN14QMediaRecorderD1Ev@Qt_6 6.6.1
 _ZN14QMediaRecorderD2Ev@Qt_6 6.6.1
 _ZN14QScreenCapture11qt_metacallEN11QMetaObject4CallEiPPv@Qt_6 6.6.1
 _ZN14QScreenCapture11qt_metacastEPKc@Qt_6 6.6.1
 _ZN14QScreenCapture12errorChangedEv@Qt_6 6.6.1
 _ZN14QScreenCapture13activeChangedEb@Qt_6 6.6.1
 _ZN14QScreenCapture13errorOccurredENS_5ErrorERK7QString@Qt_6 6.6.1
 _ZN14QScreenCapture13screenChangedEP7QScreen@Qt_6 6.6.1
 _ZN14QScreenCapture16staticMetaObjectE@Qt_6 6.6.1
 _ZN14QScreenCapture17setCaptureSessionEP20QMediaCaptureSession@Qt_6 6.6.1
 _ZN14QScreenCapture9setActiveEb@Qt_6 6.6.1
 _ZN14QScreenCapture9setScreenEP7QScreen@Qt_6 6.6.1
 _ZN14QScreenCaptureC1EP7QObject@Qt_6 6.6.1
 _ZN14QScreenCaptureC2EP7QObject@Qt_6 6.6.1
 _ZN14QScreenCaptureD0Ev@Qt_6 6.6.1
 _ZN14QScreenCaptureD1Ev@Qt_6 6.6.1
 _ZN14QScreenCaptureD2Ev@Qt_6 6.6.1
 _ZN14QWindowCapture11qt_metacallEN11QMetaObject4CallEiPPv@Qt_6 6.6.1
 _ZN14QWindowCapture11qt_metacastEPKc@Qt_6 6.6.1
 _ZN14QWindowCapture12errorChangedEv@Qt_6 6.6.1
 _ZN14QWindowCapture13activeChangedEb@Qt_6 6.6.1
 _ZN14QWindowCapture13errorOccurredENS_5ErrorERK7QString@Qt_6 6.6.1
 _ZN14QWindowCapture13windowChangedE17QCapturableWindow@Qt_6 6.6.1
 _ZN14QWindowCapture16staticMetaObjectE@Qt_6 6.6.1
 _ZN14QWindowCapture17capturableWindowsEv@Qt_6 6.6.1
 _ZN14QWindowCapture17setCaptureSessionEP20QMediaCaptureSession@Qt_6 6.6.1
 _ZN14QWindowCapture9setActiveEb@Qt_6 6.6.1
 _ZN14QWindowCapture9setWindowE17QCapturableWindow@Qt_6 6.6.1
 _ZN14QWindowCaptureC1EP7QObject@Qt_6 6.6.1
 _ZN14QWindowCaptureC2EP7QObject@Qt_6 6.6.1
 _ZN14QWindowCaptureD0Ev@Qt_6 6.6.1
 _ZN14QWindowCaptureD1Ev@Qt_6 6.6.1
 _ZN14QWindowCaptureD2Ev@Qt_6 6.6.1
 _ZN15QMediaTimeRange11addIntervalERKNS_8IntervalE@Qt_6 6.6.1
 _ZN15QMediaTimeRange11addIntervalExx@Qt_6 6.6.1
 _ZN15QMediaTimeRange12addTimeRangeERKS_@Qt_6 6.6.1
 _ZN15QMediaTimeRange14removeIntervalERKNS_8IntervalE@Qt_6 6.6.1
 _ZN15QMediaTimeRange14removeIntervalExx@Qt_6 6.6.1
 _ZN15QMediaTimeRange15removeTimeRangeERKS_@Qt_6 6.6.1
 _ZN15QMediaTimeRange5clearEv@Qt_6 6.6.1
 _ZN15QMediaTimeRange6detachEv@Qt_6 6.6.1
 _ZN15QMediaTimeRangeC1ERKNS_8IntervalE@Qt_6 6.6.1
 _ZN15QMediaTimeRangeC1ERKS_@Qt_6 6.6.1
 _ZN15QMediaTimeRangeC1Ev@Qt_6 6.6.1
 _ZN15QMediaTimeRangeC1Exx@Qt_6 6.6.1
 _ZN15QMediaTimeRangeC2ERKNS_8IntervalE@Qt_6 6.6.1
 _ZN15QMediaTimeRangeC2ERKS_@Qt_6 6.6.1
 _ZN15QMediaTimeRangeC2Ev@Qt_6 6.6.1
 _ZN15QMediaTimeRangeC2Exx@Qt_6 6.6.1
 _ZN15QMediaTimeRangeD1Ev@Qt_6 6.6.1
 _ZN15QMediaTimeRangeD2Ev@Qt_6 6.6.1
 _ZN15QMediaTimeRangeaSERKNS_8IntervalE@Qt_6 6.6.1
 _ZN15QMediaTimeRangeaSERKS_@Qt_6 6.6.1
 _ZN15QMediaTimeRangemIERKNS_8IntervalE@Qt_6 6.6.1
 _ZN15QMediaTimeRangemIERKS_@Qt_6 6.6.1
 _ZN15QMediaTimeRangepLERKNS_8IntervalE@Qt_6 6.6.1
 _ZN15QMediaTimeRangepLERKS_@Qt_6 6.6.1
 _ZN15QPlatformCamera11qt_metacallEN11QMetaObject4CallEiPPv@Qt_6_PRIVATE_API 6.6.1
 _ZN15QPlatformCamera11qt_metacastEPKc@Qt_6_PRIVATE_API 6.6.1
 _ZN15QPlatformCamera16flashModeChangedEN7QCamera9FlashModeE@Qt_6_PRIVATE_API 6.6.1
 _ZN15QPlatformCamera16focusModeChangedEN7QCamera9FocusModeE@Qt_6_PRIVATE_API 6.6.1
 _ZN15QPlatformCamera16staticMetaObjectE@Qt_6_PRIVATE_API 6.6.1
 _ZN15QPlatformCamera16torchModeChangedEN7QCamera9TorchModeE@Qt_6_PRIVATE_API 6.6.1
 _ZN15QPlatformCamera17flashReadyChangedEb@Qt_6_PRIVATE_API 6.6.1
 _ZN15QPlatformCamera17zoomFactorChangedEf@Qt_6_PRIVATE_API 6.6.1
 _ZN15QPlatformCamera19exposureModeChangedEN7QCamera12ExposureModeE@Qt_6_PRIVATE_API 6.6.1
 _ZN15QPlatformCamera19exposureTimeChangedEf@Qt_6_PRIVATE_API 6.6.1
 _ZN15QPlatformCamera20focusDistanceChangedEf@Qt_6_PRIVATE_API 6.6.1
 _ZN15QPlatformCamera21isoSensitivityChangedEi@Qt_6_PRIVATE_API 6.6.1
 _ZN15QPlatformCamera23colorTemperatureChangedEi@Qt_6_PRIVATE_API 6.6.1
 _ZN15QPlatformCamera23customFocusPointChangedERK7QPointF@Qt_6_PRIVATE_API 6.6.1
 _ZN15QPlatformCamera23whiteBalanceModeChangedEN7QCamera16WhiteBalanceModeE@Qt_6_PRIVATE_API 6.6.1
 _ZN15QPlatformCamera24maximumZoomFactorChangedEf@Qt_6_PRIVATE_API 6.6.1
 _ZN15QPlatformCamera24minimumZoomFactorChangedEf@Qt_6_PRIVATE_API 6.6.1
 _ZN15QPlatformCamera24supportedFeaturesChangedE6QFlagsIN7QCamera7FeatureEE@Qt_6_PRIVATE_API 6.6.1
 _ZN15QPlatformCamera27exposureCompensationChangedEf@Qt_6_PRIVATE_API 6.6.1
 _ZN15QPlatformCamera31colorTemperatureForWhiteBalanceEN7QCamera16WhiteBalanceModeE@Qt_6_PRIVATE_API 6.6.1
 _ZN15QPlatformCamera32exposureCompensationRangeChangedEff@Qt_6_PRIVATE_API 6.6.1
 _ZN15QPlatformCamera5errorEiRK7QString@Qt_6_PRIVATE_API 6.6.1
 _ZN15QPlatformCameraC1EP7QCamera@Qt_6_PRIVATE_API 6.6.1
 _ZN15QPlatformCameraC2EP7QCamera@Qt_6_PRIVATE_API 6.6.1
 _ZN17QCapturableWindow16staticMetaObjectE@Qt_6 6.6.1
 _ZN17QCapturableWindowC1EP24QCapturableWindowPrivate@Qt_6_PRIVATE_API 6.6.1
 _ZN17QCapturableWindowC1ERKS_@Qt_6 6.6.1
 _ZN17QCapturableWindowC1Ev@Qt_6 6.6.1
 _ZN17QCapturableWindowC2EP24QCapturableWindowPrivate@Qt_6_PRIVATE_API 6.6.1
 _ZN17QCapturableWindowC2ERKS_@Qt_6 6.6.1
 _ZN17QCapturableWindowC2Ev@Qt_6 6.6.1
 _ZN17QCapturableWindowD1Ev@Qt_6 6.6.1
 _ZN17QCapturableWindowD2Ev@Qt_6 6.6.1
 _ZN17QCapturableWindowaSERKS_@Qt_6 6.6.1
 _ZN17QVideoFrameFormat11setMirroredEb@Qt_6 6.6.1
 _ZN17QVideoFrameFormat11setViewportERK5QRect@Qt_6 6.6.1
 _ZN17QVideoFrameFormat12setFrameRateEd@Qt_6 6.6.1
 _ZN17QVideoFrameFormat12setFrameSizeERK5QSize@Qt_6 6.6.1
 _ZN17QVideoFrameFormat12setFrameSizeEii@Qt_6 6.6.1
 _ZN17QVideoFrameFormat13setColorRangeENS_10ColorRangeE@Qt_6 6.6.1
 _ZN17QVideoFrameFormat13setColorSpaceENS_10ColorSpaceE@Qt_6 6.6.1
 _ZN17QVideoFrameFormat15setMaxLuminanceEf@Qt_6 6.6.1
 _ZN17QVideoFrameFormat16setColorTransferENS_13ColorTransferE@Qt_6 6.6.1
 _ZN17QVideoFrameFormat18setYCbCrColorSpaceENS_15YCbCrColorSpaceE@Qt_6 6.6.1
 _ZN17QVideoFrameFormat19pixelFormatToStringENS_11PixelFormatE@Qt_6 6.6.1
 _ZN17QVideoFrameFormat20setScanLineDirectionENS_9DirectionE@Qt_6 6.6.1
 _ZN17QVideoFrameFormat26imageFormatFromPixelFormatENS_11PixelFormatE@Qt_6 6.6.1
 _ZN17QVideoFrameFormat26pixelFormatFromImageFormatEN6QImage6FormatE@Qt_6 6.6.1
 _ZN17QVideoFrameFormat6detachEv@Qt_6 6.6.1
 _ZN17QVideoFrameFormatC1ERK5QSizeNS_11PixelFormatE@Qt_6 6.6.1
 _ZN17QVideoFrameFormatC1ERKS_@Qt_6 6.6.1
 _ZN17QVideoFrameFormatC1Ev@Qt_6 6.6.1
 _ZN17QVideoFrameFormatC2ERK5QSizeNS_11PixelFormatE@Qt_6 6.6.1
 _ZN17QVideoFrameFormatC2ERKS_@Qt_6 6.6.1
 _ZN17QVideoFrameFormatC2Ev@Qt_6 6.6.1
 _ZN17QVideoFrameFormatD1Ev@Qt_6 6.6.1
 _ZN17QVideoFrameFormatD2Ev@Qt_6 6.6.1
 _ZN17QVideoFrameFormataSERKS_@Qt_6 6.6.1
 _ZN18QAudioStateMachine13forceSetStateEN6QAudio5StateENS0_5ErrorE@Qt_6_PRIVATE_API 6.6.1
 _ZN18QAudioStateMachine16activateFromIdleEv@Qt_6_PRIVATE_API 6.6.1
 _ZN18QAudioStateMachine18updateActiveOrIdleEbN6QAudio5ErrorE@Qt_6_PRIVATE_API 6.6.1
 _ZN18QAudioStateMachine4stopEN6QAudio5ErrorEbb@Qt_6_PRIVATE_API 6.6.1
 _ZN18QAudioStateMachine5resetEii@Qt_6_PRIVATE_API 6.6.1
 _ZN18QAudioStateMachine5startEb@Qt_6_PRIVATE_API 6.6.1
 _ZN18QAudioStateMachine6resumeEv@Qt_6_PRIVATE_API 6.6.1
 _ZN18QAudioStateMachine7suspendEv@Qt_6_PRIVATE_API 6.6.1
 _ZN18QAudioStateMachine8setErrorEN6QAudio5ErrorE@Qt_6_PRIVATE_API 6.6.1
 _ZN18QAudioStateMachine9onDrainedEv@Qt_6_PRIVATE_API 6.6.1
 _ZN18QAudioStateMachineC1ER25QAudioStateChangeNotifier@Qt_6_PRIVATE_API 6.6.1
 _ZN18QAudioStateMachineC2ER25QAudioStateChangeNotifier@Qt_6_PRIVATE_API 6.6.1
 _ZN18QAudioStateMachineD1Ev@Qt_6_PRIVATE_API 6.6.1
 _ZN18QAudioStateMachineD2Ev@Qt_6_PRIVATE_API 6.6.1
 _ZN18QMemoryVideoBuffer3mapEN11QVideoFrame7MapModeE@Qt_6_PRIVATE_API 6.6.1
 _ZN18QMemoryVideoBuffer5unmapEv@Qt_6_PRIVATE_API 6.6.1
 _ZN18QMemoryVideoBufferC1ERK10QByteArrayi@Qt_6_PRIVATE_API 6.6.1
 _ZN18QMemoryVideoBufferC2ERK10QByteArrayi@Qt_6_PRIVATE_API 6.6.1
 _ZN18QMemoryVideoBufferD0Ev@Qt_6_PRIVATE_API 6.6.1
 _ZN18QMemoryVideoBufferD1Ev@Qt_6_PRIVATE_API 6.6.1
 _ZN18QMemoryVideoBufferD2Ev@Qt_6_PRIVATE_API 6.6.1
 _ZN18QPlatformAudioSink11qt_metacallEN11QMetaObject4CallEiPPv@Qt_6_PRIVATE_API 6.6.1
 _ZN18QPlatformAudioSink11qt_metacastEPKc@Qt_6_PRIVATE_API 6.6.1
 _ZN18QPlatformAudioSink16staticMetaObjectE@Qt_6_PRIVATE_API 6.6.1
 _ZN18QPlatformAudioSinkC1EP7QObject@Qt_6_PRIVATE_API 6.6.1
 _ZN18QPlatformAudioSinkC2EP7QObject@Qt_6_PRIVATE_API 6.6.1
 _ZN18QPlatformVideoSink10rhiChangedEP4QRhi@Qt_6_PRIVATE_API 6.6.1
 _ZN18QPlatformVideoSink11qt_metacallEN11QMetaObject4CallEiPPv@Qt_6_PRIVATE_API 6.6.1
 _ZN18QPlatformVideoSink11qt_metacastEPKc@Qt_6_PRIVATE_API 6.6.1
 _ZN18QPlatformVideoSink13setNativeSizeE5QSize@Qt_6_PRIVATE_API 6.6.1
 _ZN18QPlatformVideoSink13setVideoFrameERK11QVideoFrame@Qt_6_PRIVATE_API 6.6.1
 _ZN18QPlatformVideoSink15setSubtitleTextERK7QString@Qt_6_PRIVATE_API 6.6.1
 _ZN18QPlatformVideoSink16staticMetaObjectE@Qt_6_PRIVATE_API 6.6.1
 _ZN18QPlatformVideoSinkC1EP10QVideoSink@Qt_6_PRIVATE_API 6.6.1
 _ZN18QPlatformVideoSinkC2EP10QVideoSink@Qt_6_PRIVATE_API 6.6.1
 _ZN18QPlatformVideoSinkD0Ev@Qt_6_PRIVATE_API 6.6.1
 _ZN18QPlatformVideoSinkD1Ev@Qt_6_PRIVATE_API 6.6.1
 _ZN18QPlatformVideoSinkD2Ev@Qt_6_PRIVATE_API 6.6.1
 _ZN19QAudioDevicePrivateD0Ev@Qt_6_PRIVATE_API 6.6.1
 _ZN19QAudioDevicePrivateD1Ev@Qt_6_PRIVATE_API 6.6.1
 _ZN19QAudioDevicePrivateD2Ev@Qt_6_PRIVATE_API 6.6.1
 _ZN19QVideoTextureHelper14SubtitleLayout6updateERK5QSize7QString@Qt_6 6.6.1
 _ZN19QVideoTextureHelper14createTexturesER11QVideoFrameP4QRhiP23QRhiResourceUpdateBatchOSt10unique_ptrI19QVideoFrameTexturesSt14default_deleteIS7_EE@Qt_6_PRIVATE_API 6.6.1
 _ZN19QVideoTextureHelper17updateUniformDataEP10QByteArrayRK17QVideoFrameFormatRK11QVideoFrameRK10QMatrix4x4ff@Qt_6 6.6.1
 _ZN19QVideoTextureHelper18textureDescriptionEN17QVideoFrameFormat11PixelFormatE@Qt_6 6.6.1
 _ZN19QVideoTextureHelper20vertexShaderFileNameERK17QVideoFrameFormat@Qt_6 6.6.1
 _ZN19QVideoTextureHelper22fragmentShaderFileNameERK17QVideoFrameFormatN13QRhiSwapChain6FormatE@Qt_6 6.6.1
 _ZN20QAbstractVideoBufferC1EN11QVideoFrame10HandleTypeEP4QRhi@Qt_6_PRIVATE_API 6.6.1
 _ZN20QAbstractVideoBufferC2EN11QVideoFrame10HandleTypeEP4QRhi@Qt_6_PRIVATE_API 6.6.1
 _ZN20QAbstractVideoBufferD0Ev@Qt_6_PRIVATE_API 6.6.1
 _ZN20QAbstractVideoBufferD1Ev@Qt_6_PRIVATE_API 6.6.1
 _ZN20QAbstractVideoBufferD2Ev@Qt_6_PRIVATE_API 6.6.1
 _ZN20QAudioHelperInternal16qMultiplySamplesEdRK12QAudioFormatPKvPvi@Qt_6 6.6.1
 _ZN20QMediaCaptureSession11qt_metacallEN11QMetaObject4CallEiPPv@Qt_6 6.6.1
 _ZN20QMediaCaptureSession11qt_metacastEPKc@Qt_6 6.6.1
 _ZN20QMediaCaptureSession11setRecorderEP14QMediaRecorder@Qt_6 6.6.1
 _ZN20QMediaCaptureSession12imageCaptureEv@Qt_6 6.6.1
 _ZN20QMediaCaptureSession12setVideoSinkEP10QVideoSink@Qt_6 6.6.1
 _ZN20QMediaCaptureSession13cameraChangedEv@Qt_6 6.6.1
 _ZN20QMediaCaptureSession13screenCaptureEv@Qt_6 6.6.1
 _ZN20QMediaCaptureSession13setAudioInputEP11QAudioInput@Qt_6 6.6.1
 _ZN20QMediaCaptureSession13windowCaptureEv@Qt_6 6.6.1
 _ZN20QMediaCaptureSession14setAudioOutputEP12QAudioOutput@Qt_6 6.6.1
 _ZN20QMediaCaptureSession14setVideoOutputEP7QObject@Qt_6 6.6.1
 _ZN20QMediaCaptureSession15recorderChangedEv@Qt_6 6.6.1
 _ZN20QMediaCaptureSession15setImageCaptureEP13QImageCapture@Qt_6 6.6.1
 _ZN20QMediaCaptureSession16setScreenCaptureEP14QScreenCapture@Qt_6 6.6.1
 _ZN20QMediaCaptureSession16setWindowCaptureEP14QWindowCapture@Qt_6 6.6.1
 _ZN20QMediaCaptureSession16staticMetaObjectE@Qt_6 6.6.1
 _ZN20QMediaCaptureSession17audioInputChangedEv@Qt_6 6.6.1
 _ZN20QMediaCaptureSession18audioOutputChangedEv@Qt_6 6.6.1
 _ZN20QMediaCaptureSession18videoOutputChangedEv@Qt_6 6.6.1
 _ZN20QMediaCaptureSession19imageCaptureChangedEv@Qt_6 6.6.1
 _ZN20QMediaCaptureSession20screenCaptureChangedEv@Qt_6 6.6.1
 _ZN20QMediaCaptureSession20windowCaptureChangedEv@Qt_6 6.6.1
 _ZN20QMediaCaptureSession8recorderEv@Qt_6 6.6.1
 _ZN20QMediaCaptureSession9setCameraEP7QCamera@Qt_6 6.6.1
 _ZN20QMediaCaptureSessionC1EP7QObject@Qt_6 6.6.1
 _ZN20QMediaCaptureSessionC2EP7QObject@Qt_6 6.6.1
 _ZN20QMediaCaptureSessionD0Ev@Qt_6 6.6.1
 _ZN20QMediaCaptureSessionD1Ev@Qt_6 6.6.1
 _ZN20QMediaCaptureSessionD2Ev@Qt_6 6.6.1
 _ZN20QPlatformAudioSource11qt_metacallEN11QMetaObject4CallEiPPv@Qt_6_PRIVATE_API 6.6.1
 _ZN20QPlatformAudioSource11qt_metacastEPKc@Qt_6_PRIVATE_API 6.6.1
 _ZN20QPlatformAudioSource16staticMetaObjectE@Qt_6_PRIVATE_API 6.6.1
 _ZN20QPlatformAudioSourceC1EP7QObject@Qt_6_PRIVATE_API 6.6.1
 _ZN20QPlatformAudioSourceC2EP7QObject@Qt_6_PRIVATE_API 6.6.1
 _ZN20QPlatformMediaPlayer12stateChangedEN12QMediaPlayer13PlaybackStateE@Qt_6_PRIVATE_API 6.6.1
 _ZN20QPlatformMediaPlayer14nativePipelineEP12QMediaPlayer@Qt_6_PRIVATE_API 6.6.1
 _ZN20QPlatformMediaPlayer18mediaStatusChangedEN12QMediaPlayer11MediaStatusE@Qt_6_PRIVATE_API 6.6.1
 _ZN20QPlatformMediaPlayer5errorEiRK7QString@Qt_6_PRIVATE_API 6.6.1
 _ZN20QPlatformMediaPlayerC1EP12QMediaPlayer@Qt_6_PRIVATE_API 6.6.1
 _ZN20QPlatformMediaPlayerC2EP12QMediaPlayer@Qt_6_PRIVATE_API 6.6.1
 _ZN20QPlatformMediaPlayerD0Ev@Qt_6_PRIVATE_API 6.6.1
 _ZN20QPlatformMediaPlayerD1Ev@Qt_6_PRIVATE_API 6.6.1
 _ZN20QPlatformMediaPlayerD2Ev@Qt_6_PRIVATE_API 6.6.1
 _ZN20QPlatformMediaPlugin11qt_metacallEN11QMetaObject4CallEiPPv@Qt_6_PRIVATE_API 6.6.1
 _ZN20QPlatformMediaPlugin11qt_metacastEPKc@Qt_6_PRIVATE_API 6.6.1
 _ZN20QPlatformMediaPlugin16staticMetaObjectE@Qt_6_PRIVATE_API 6.6.1
 _ZN20QPlatformMediaPluginC1EP7QObject@Qt_6_PRIVATE_API 6.6.1
 _ZN20QPlatformMediaPluginC2EP7QObject@Qt_6_PRIVATE_API 6.6.1
 _ZN20QPlatformMediaPluginD0Ev@Qt_6_PRIVATE_API 6.6.1
 _ZN20QPlatformMediaPluginD1Ev@Qt_6_PRIVATE_API 6.6.1
 _ZN20QPlatformMediaPluginD2Ev@Qt_6_PRIVATE_API 6.6.1
 _ZN20QPlatformVideoSource11qt_metacallEN11QMetaObject4CallEiPPv@Qt_6_PRIVATE_API 6.6.1
 _ZN20QPlatformVideoSource11qt_metacastEPKc@Qt_6_PRIVATE_API 6.6.1
 _ZN20QPlatformVideoSource13activeChangedEb@Qt_6_PRIVATE_API 6.6.1
 _ZN20QPlatformVideoSource13newVideoFrameERK11QVideoFrame@Qt_6_PRIVATE_API 6.6.1
 _ZN20QPlatformVideoSource16staticMetaObjectE@Qt_6_PRIVATE_API 6.6.1
 _ZN21QMediaRecorderPrivate23msgFailedStartRecordingEv@Qt_6_PRIVATE_API 6.6.1
 _ZN21QMediaRecorderPrivateC1Ev@Qt_6_PRIVATE_API 6.6.1
 _ZN21QMediaRecorderPrivateC2Ev@Qt_6_PRIVATE_API 6.6.1
 _ZN21QMediaStorageLocation16defaultDirectoryEN14QStandardPaths16StandardLocationE@Qt_6 6.6.1
 _ZN21QMediaStorageLocation16generateFileNameERK7QStringN14QStandardPaths16StandardLocationES2_@Qt_6 6.6.1
 _ZN21QPlatformAudioDecoder11bufferReadyEv@Qt_6_PRIVATE_API 6.6.1
 _ZN21QPlatformAudioDecoder11qt_metacallEN11QMetaObject4CallEiPPv@Qt_6_PRIVATE_API 6.6.1
 _ZN21QPlatformAudioDecoder11qt_metacastEPKc@Qt_6_PRIVATE_API 6.6.1
 _ZN21QPlatformAudioDecoder13formatChangedERK12QAudioFormat@Qt_6_PRIVATE_API 6.6.1
 _ZN21QPlatformAudioDecoder13sourceChangedEv@Qt_6_PRIVATE_API 6.6.1
 _ZN21QPlatformAudioDecoder15durationChangedEx@Qt_6_PRIVATE_API 6.6.1
 _ZN21QPlatformAudioDecoder15positionChangedEx@Qt_6_PRIVATE_API 6.6.1
 _ZN21QPlatformAudioDecoder16staticMetaObjectE@Qt_6_PRIVATE_API 6.6.1
 _ZN21QPlatformAudioDecoder22bufferAvailableChangedEb@Qt_6_PRIVATE_API 6.6.1
 _ZN21QPlatformAudioDecoder5errorEiRK7QString@Qt_6_PRIVATE_API 6.6.1
 _ZN21QPlatformAudioDecoder8finishedEv@Qt_6_PRIVATE_API 6.6.1
 _ZN21QPlatformAudioDecoderC1EP13QAudioDecoder@Qt_6_PRIVATE_API 6.6.1
 _ZN21QPlatformAudioDecoderC2EP13QAudioDecoder@Qt_6_PRIVATE_API 6.6.1
 _ZN21QPlatformImageCapture10imageSavedEiRK7QString@Qt_6_PRIVATE_API 6.6.1
 _ZN21QPlatformImageCapture11qt_metacallEN11QMetaObject4CallEiPPv@Qt_6_PRIVATE_API 6.6.1
 _ZN21QPlatformImageCapture11qt_metacastEPKc@Qt_6_PRIVATE_API 6.6.1
 _ZN21QPlatformImageCapture12imageExposedEi@Qt_6_PRIVATE_API 6.6.1
 _ZN21QPlatformImageCapture13imageCapturedEiRK6QImage@Qt_6_PRIVATE_API 6.6.1
 _ZN21QPlatformImageCapture14imageAvailableEiRK11QVideoFrame@Qt_6_PRIVATE_API 6.6.1
 _ZN21QPlatformImageCapture16staticMetaObjectE@Qt_6_PRIVATE_API 6.6.1
 _ZN21QPlatformImageCapture17msgCameraNotReadyEv@Qt_6_PRIVATE_API 6.6.1
 _ZN21QPlatformImageCapture21msgImageCaptureNotSetEv@Qt_6_PRIVATE_API 6.6.1
 _ZN21QPlatformImageCapture22imageMetadataAvailableEiRK14QMediaMetaData@Qt_6_PRIVATE_API 6.6.1
 _ZN21QPlatformImageCapture22readyForCaptureChangedEb@Qt_6_PRIVATE_API 6.6.1
 _ZN21QPlatformImageCapture5errorEiiRK7QString@Qt_6_PRIVATE_API 6.6.1
 _ZN21QPlatformImageCaptureC1EP13QImageCapture@Qt_6_PRIVATE_API 6.6.1
 _ZN21QPlatformImageCaptureC2EP13QImageCapture@Qt_6_PRIVATE_API 6.6.1
 _ZN21QPlatformMediaDevices10setDevicesEPS_@Qt_6_PRIVATE_API 6.6.1
 _ZN21QPlatformMediaDevices11qt_metacallEN11QMetaObject4CallEiPPv@Qt_6_PRIVATE_API 6.6.1
 _ZN21QPlatformMediaDevices11qt_metacastEPKc@Qt_6_PRIVATE_API 6.6.1
 _ZN21QPlatformMediaDevices12prepareAudioEv@Qt_6_PRIVATE_API 6.6.1
 _ZN21QPlatformMediaDevices15createAudioSinkERK12QAudioDeviceP7QObject@Qt_6_PRIVATE_API 6.6.1
 _ZN21QPlatformMediaDevices16audioInputDeviceERK12QAudioFormatRK12QAudioDeviceP7QObject@Qt_6_PRIVATE_API 6.6.1
 _ZN21QPlatformMediaDevices16staticMetaObjectE@Qt_6_PRIVATE_API 6.6.1
 _ZN21QPlatformMediaDevices17audioOutputDeviceERK12QAudioFormatRK12QAudioDeviceP7QObject@Qt_6_PRIVATE_API 6.6.1
 _ZN21QPlatformMediaDevices17createAudioSourceERK12QAudioDeviceP7QObject@Qt_6_PRIVATE_API 6.6.1
 _ZN21QPlatformMediaDevices18audioInputsChangedEv@Qt_6_PRIVATE_API 6.6.1
 _ZN21QPlatformMediaDevices18videoInputsChangedEv@Qt_6_PRIVATE_API 6.6.1
 _ZN21QPlatformMediaDevices19audioOutputsChangedEv@Qt_6_PRIVATE_API 6.6.1
 _ZN21QPlatformMediaDevices26initVideoDevicesConnectionEv@Qt_6_PRIVATE_API 6.6.1
 _ZN21QPlatformMediaDevices8instanceEv@Qt_6_PRIVATE_API 6.6.1
 _ZN21QPlatformMediaDevicesC1Ev@Qt_6_PRIVATE_API 6.6.1
 _ZN21QPlatformMediaDevicesC2Ev@Qt_6_PRIVATE_API 6.6.1
 _ZN21QPlatformMediaDevicesD0Ev@Qt_6_PRIVATE_API 6.6.1
 _ZN21QPlatformMediaDevicesD1Ev@Qt_6_PRIVATE_API 6.6.1
 _ZN21QPlatformMediaDevicesD2Ev@Qt_6_PRIVATE_API 6.6.1
 _ZN21QPlatformVideoDevices11qt_metacallEN11QMetaObject4CallEiPPv@Qt_6_PRIVATE_API 6.6.1
 _ZN21QPlatformVideoDevices11qt_metacastEPKc@Qt_6_PRIVATE_API 6.6.1
 _ZN21QPlatformVideoDevices16staticMetaObjectE@Qt_6_PRIVATE_API 6.6.1
 _ZN21QPlatformVideoDevices18videoInputsChangedEv@Qt_6_PRIVATE_API 6.6.1
 _ZN21QPlatformVideoDevicesD0Ev@Qt_6_PRIVATE_API 6.6.1
 _ZN21QPlatformVideoDevicesD1Ev@Qt_6_PRIVATE_API 6.6.1
 _ZN21QPlatformVideoDevicesD2Ev@Qt_6_PRIVATE_API 6.6.1
 _ZN22QPlatformMediaRecorder12stateChangedEN14QMediaRecorder13RecorderStateE@Qt_6_PRIVATE_API 6.6.1
 _ZN22QPlatformMediaRecorder15durationChangedEx@Qt_6_PRIVATE_API 6.6.1
 _ZN22QPlatformMediaRecorder15metaDataChangedEv@Qt_6_PRIVATE_API 6.6.1
 _ZN22QPlatformMediaRecorder21actualLocationChangedERK4QUrl@Qt_6_PRIVATE_API 6.6.1
 _ZN22QPlatformMediaRecorder5errorEN14QMediaRecorder5ErrorERK7QString@Qt_6_PRIVATE_API 6.6.1
 _ZN22QPlatformMediaRecorder5pauseEv@Qt_6_PRIVATE_API 6.6.1
 _ZN22QPlatformMediaRecorder6resumeEv@Qt_6_PRIVATE_API 6.6.1
 _ZN22QPlatformMediaRecorderC1EP14QMediaRecorder@Qt_6_PRIVATE_API 6.6.1
 _ZN22QPlatformMediaRecorderC2EP14QMediaRecorder@Qt_6_PRIVATE_API 6.6.1
 _ZN23QPlatformSurfaceCapture11qt_metacallEN11QMetaObject4CallEiPPv@Qt_6_PRIVATE_API 6.6.1
 _ZN23QPlatformSurfaceCapture11qt_metacastEPKc@Qt_6_PRIVATE_API 6.6.1
 _ZN23QPlatformSurfaceCapture11updateErrorENS_5ErrorERK7QString@Qt_6_PRIVATE_API 6.6.1
 _ZN23QPlatformSurfaceCapture12errorChangedEv@Qt_6_PRIVATE_API 6.6.1
 _ZN23QPlatformSurfaceCapture13errorOccurredENS_5ErrorE7QString@Qt_6_PRIVATE_API 6.6.1
 _ZN23QPlatformSurfaceCapture13sourceChangedE17QCapturableWindow@Qt_6_PRIVATE_API 6.6.1
 _ZN23QPlatformSurfaceCapture13sourceChangedE8QPointerI7QScreenE@Qt_6_PRIVATE_API 6.6.1
 _ZN23QPlatformSurfaceCapture16staticMetaObjectE@Qt_6_PRIVATE_API 6.6.1
 _ZN23QPlatformSurfaceCapture20checkScreenWithErrorER8QPointerI7QScreenE@Qt_6_PRIVATE_API 6.6.1
 _ZN23QPlatformSurfaceCapture9setActiveEb@Qt_6_PRIVATE_API 6.6.1
 _ZN23QPlatformSurfaceCapture9setSourceESt7variantIJ8QPointerI7QScreenE17QCapturableWindowEE@Qt_6_PRIVATE_API 6.6.1
 _ZN23QPlatformSurfaceCaptureC1ESt7variantIJ8QPointerI7QScreenE17QCapturableWindowEE@Qt_6_PRIVATE_API 6.6.1
 _ZN23QPlatformSurfaceCaptureC2ESt7variantIJ8QPointerI7QScreenE17QCapturableWindowEE@Qt_6_PRIVATE_API 6.6.1
 _ZN24QPlatformMediaFormatInfoC1Ev@Qt_6_PRIVATE_API 6.6.1
 _ZN24QPlatformMediaFormatInfoC2Ev@Qt_6_PRIVATE_API 6.6.1
 _ZN24QPlatformMediaFormatInfoD0Ev@Qt_6_PRIVATE_API 6.6.1
 _ZN24QPlatformMediaFormatInfoD1Ev@Qt_6_PRIVATE_API 6.6.1
 _ZN24QPlatformMediaFormatInfoD2Ev@Qt_6_PRIVATE_API 6.6.1
 _ZN25QAudioStateChangeNotifier11qt_metacallEN11QMetaObject4CallEiPPv@Qt_6_PRIVATE_API 6.6.1
 _ZN25QAudioStateChangeNotifier11qt_metacastEPKc@Qt_6_PRIVATE_API 6.6.1
 _ZN25QAudioStateChangeNotifier12errorChangedEN6QAudio5ErrorE@Qt_6_PRIVATE_API 6.6.1
 _ZN25QAudioStateChangeNotifier12stateChangedEN6QAudio5StateE@Qt_6_PRIVATE_API 6.6.1
 _ZN25QAudioStateChangeNotifier16staticMetaObjectE@Qt_6_PRIVATE_API 6.6.1
 _ZN25QAudioStateChangeNotifierC1EP7QObject@Qt_6_PRIVATE_API 6.6.1
 _ZN25QAudioStateChangeNotifierC2EP7QObject@Qt_6_PRIVATE_API 6.6.1
 _ZN25QPlatformMediaIntegration10formatInfoEv@Qt_6_PRIVATE_API 6.6.1
 _ZN25QPlatformMediaIntegration11videoInputsEv@Qt_6_PRIVATE_API 6.6.1
 _ZN25QPlatformMediaIntegration12notAvailableE@Qt_6_PRIVATE_API 6.6.1
 _ZN25QPlatformMediaIntegration16createAudioInputEP11QAudioInput@Qt_6_PRIVATE_API 6.6.1
 _ZN25QPlatformMediaIntegration16createFormatInfoEv@Qt_6_PRIVATE_API 6.6.1
 _ZN25QPlatformMediaIntegration17capturableWindowsEv@Qt_6_PRIVATE_API 6.6.1
 _ZN25QPlatformMediaIntegration17createAudioOutputEP12QAudioOutput@Qt_6_PRIVATE_API 6.6.1
 (optional=templinst)_ZN25QPlatformMediaIntegration18setPlatformFactoryESt8functionIFSt10unique_ptrIS_St14default_deleteIS_EEvEE@Qt_6_PRIVATE_API 6.6.1
 _ZN25QPlatformMediaIntegration23isCapturableWindowValidERK24QCapturableWindowPrivate@Qt_6_PRIVATE_API 6.6.1
 _ZN25QPlatformMediaIntegration8instanceEv@Qt_6_PRIVATE_API 6.6.1
 _ZN25QPlatformMediaIntegrationC1Ev@Qt_6_PRIVATE_API 6.6.1
 _ZN25QPlatformMediaIntegrationC2Ev@Qt_6_PRIVATE_API 6.6.1
 _ZN25QPlatformMediaIntegrationD0Ev@Qt_6_PRIVATE_API 6.6.1
 _ZN25QPlatformMediaIntegrationD1Ev@Qt_6_PRIVATE_API 6.6.1
 _ZN25QPlatformMediaIntegrationD2Ev@Qt_6_PRIVATE_API 6.6.1
 (optional=templinst)_ZN28QExplicitlySharedDataPointerI18QVideoFramePrivateED1Ev@Qt_6 6.6.1
 (optional=templinst)_ZN28QExplicitlySharedDataPointerI18QVideoFramePrivateED2Ev@Qt_6 6.6.1
 (optional=templinst)_ZN28QExplicitlySharedDataPointerI19QAudioBufferPrivateED1Ev@Qt_6 6.6.1
 (optional=templinst)_ZN28QExplicitlySharedDataPointerI19QAudioBufferPrivateED2Ev@Qt_6 6.6.1
 (optional=templinst)_ZN28QExplicitlySharedDataPointerI19QAudioDevicePrivateED1Ev@Qt_6_PRIVATE_API 6.6.1
 (optional=templinst)_ZN28QExplicitlySharedDataPointerI19QAudioDevicePrivateED2Ev@Qt_6_PRIVATE_API 6.6.1
 (optional=templinst)_ZN28QExplicitlySharedDataPointerI19QMediaFormatPrivateED1Ev@Qt_6 6.6.1
 (optional=templinst)_ZN28QExplicitlySharedDataPointerI19QMediaFormatPrivateED2Ev@Qt_6 6.6.1
 (optional=templinst)_ZN28QExplicitlySharedDataPointerI22QMediaTimeRangePrivateED1Ev@Qt_6 6.6.1
 (optional=templinst)_ZN28QExplicitlySharedDataPointerI22QMediaTimeRangePrivateED2Ev@Qt_6 6.6.1
 (optional=templinst)_ZN28QExplicitlySharedDataPointerI24QCapturableWindowPrivateED1Ev@Qt_6_PRIVATE_API 6.6.1
 (optional=templinst)_ZN28QExplicitlySharedDataPointerI24QCapturableWindowPrivateED2Ev@Qt_6_PRIVATE_API 6.6.1
 (optional=templinst)_ZN28QExplicitlySharedDataPointerI24QVideoFrameFormatPrivateED1Ev@Qt_6 6.6.1
 (optional=templinst)_ZN28QExplicitlySharedDataPointerI24QVideoFrameFormatPrivateED2Ev@Qt_6 6.6.1
 _ZN28QPlatformMediaCaptureSession11qt_metacallEN11QMetaObject4CallEiPPv@Qt_6_PRIVATE_API 6.6.1
 _ZN28QPlatformMediaCaptureSession11qt_metacastEPKc@Qt_6_PRIVATE_API 6.6.1
 _ZN28QPlatformMediaCaptureSession13cameraChangedEv@Qt_6_PRIVATE_API 6.6.1
 _ZN28QPlatformMediaCaptureSession14encoderChangedEv@Qt_6_PRIVATE_API 6.6.1
 _ZN28QPlatformMediaCaptureSession16staticMetaObjectE@Qt_6_PRIVATE_API 6.6.1
 _ZN28QPlatformMediaCaptureSession18activeVideoSourcesEv@Qt_6_PRIVATE_API 6.6.1
 _ZN28QPlatformMediaCaptureSession19imageCaptureChangedEv@Qt_6_PRIVATE_API 6.6.1
 _ZN28QPlatformMediaCaptureSession20screenCaptureChangedEv@Qt_6_PRIVATE_API 6.6.1
 _ZN28QPlatformMediaCaptureSession20windowCaptureChangedEv@Qt_6_PRIVATE_API 6.6.1
 _ZN28QPlatformMediaCaptureSessionD0Ev@Qt_6_PRIVATE_API 6.6.1
 _ZN28QPlatformMediaCaptureSessionD1Ev@Qt_6_PRIVATE_API 6.6.1
 _ZN28QPlatformMediaCaptureSessionD2Ev@Qt_6_PRIVATE_API 6.6.1
 _ZN30QVideoOutputOrientationHandler11qt_metacallEN11QMetaObject4CallEiPPv@Qt_6_PRIVATE_API 6.6.1
 _ZN30QVideoOutputOrientationHandler11qt_metacastEPKc@Qt_6_PRIVATE_API 6.6.1
 _ZN30QVideoOutputOrientationHandler13m_isRecordingE@Qt_6_PRIVATE_API 6.6.1
 _ZN30QVideoOutputOrientationHandler16staticMetaObjectE@Qt_6_PRIVATE_API 6.6.1
 _ZN30QVideoOutputOrientationHandler18orientationChangedEi@Qt_6_PRIVATE_API 6.6.1
 _ZN30QVideoOutputOrientationHandler24screenOrientationChangedEN2Qt17ScreenOrientationE@Qt_6_PRIVATE_API 6.6.1
 _ZN30QVideoOutputOrientationHandlerC1EP7QObject@Qt_6_PRIVATE_API 6.6.1
 _ZN30QVideoOutputOrientationHandlerC2EP7QObject@Qt_6_PRIVATE_API 6.6.1
 _ZN6QAudio13convertVolumeEfNS_11VolumeScaleES0_@Qt_6 6.6.1
 _ZN7QCamera10flashReadyEb@Qt_6 6.6.1
 _ZN7QCamera10hueChangedEv@Qt_6 6.6.1
 _ZN7QCamera11qt_metacallEN11QMetaObject4CallEiPPv@Qt_6 6.6.1
 _ZN7QCamera11qt_metacastEPKc@Qt_6 6.6.1
 _ZN7QCamera12errorChangedEv@Qt_6 6.6.1
 _ZN7QCamera12setFlashModeENS_9FlashModeE@Qt_6 6.6.1
 _ZN7QCamera12setFocusModeENS_9FocusModeE@Qt_6 6.6.1
 _ZN7QCamera12setTorchModeENS_9TorchModeE@Qt_6 6.6.1
 _ZN7QCamera13activeChangedEb@Qt_6 6.6.1
 _ZN7QCamera13errorOccurredENS_5ErrorERK7QString@Qt_6 6.6.1
 _ZN7QCamera13setZoomFactorEf@Qt_6 6.6.1
 _ZN7QCamera14platformCameraEv@Qt_6 6.6.1
 _ZN7QCamera15contrastChangedEv@Qt_6 6.6.1
 _ZN7QCamera15setCameraDeviceERK13QCameraDevice@Qt_6 6.6.1
 _ZN7QCamera15setCameraFormatERK13QCameraFormat@Qt_6 6.6.1
 _ZN7QCamera15setExposureModeENS_12ExposureModeE@Qt_6 6.6.1
 _ZN7QCamera16flashModeChangedEv@Qt_6 6.6.1
 _ZN7QCamera16focusModeChangedEv@Qt_6 6.6.1
 _ZN7QCamera16setFocusDistanceEf@Qt_6 6.6.1
 _ZN7QCamera16staticMetaObjectE@Qt_6 6.6.1
 _ZN7QCamera16torchModeChangedEv@Qt_6 6.6.1
 _ZN7QCamera17brightnessChangedEv@Qt_6 6.6.1
 _ZN7QCamera17focusPointChangedEv@Qt_6 6.6.1
 _ZN7QCamera17saturationChangedEv@Qt_6 6.6.1
 _ZN7QCamera17setCaptureSessionEP20QMediaCaptureSession@Qt_6 6.6.1
 _ZN7QCamera17zoomFactorChangedEf@Qt_6 6.6.1
 _ZN7QCamera19cameraDeviceChangedEv@Qt_6 6.6.1
 _ZN7QCamera19cameraFormatChangedEv@Qt_6 6.6.1
 _ZN7QCamera19exposureModeChangedEv@Qt_6 6.6.1
 _ZN7QCamera19exposureTimeChangedEf@Qt_6 6.6.1
 _ZN7QCamera19setAutoExposureTimeEv@Qt_6 6.6.1
 _ZN7QCamera19setColorTemperatureEi@Qt_6 6.6.1
 _ZN7QCamera19setCustomFocusPointERK7QPointF@Qt_6 6.6.1
 _ZN7QCamera19setWhiteBalanceModeENS_16WhiteBalanceModeE@Qt_6 6.6.1
 _ZN7QCamera20focusDistanceChangedEf@Qt_6 6.6.1
 _ZN7QCamera21isoSensitivityChangedEi@Qt_6 6.6.1
 _ZN7QCamera21setAutoIsoSensitivityEv@Qt_6 6.6.1
 _ZN7QCamera21setManualExposureTimeEf@Qt_6 6.6.1
 _ZN7QCamera23customFocusPointChangedEv@Qt_6 6.6.1
 _ZN7QCamera23setExposureCompensationEf@Qt_6 6.6.1
 _ZN7QCamera23setManualIsoSensitivityEi@Qt_6 6.6.1
 _ZN7QCamera24maximumZoomFactorChangedEf@Qt_6 6.6.1
 _ZN7QCamera24minimumZoomFactorChangedEf@Qt_6 6.6.1
 _ZN7QCamera24supportedFeaturesChangedEv@Qt_6 6.6.1
 _ZN7QCamera25manualExposureTimeChangedEf@Qt_6 6.6.1
 _ZN7QCamera27exposureCompensationChangedEf@Qt_6 6.6.1
 _ZN7QCamera27manualIsoSensitivityChangedEi@Qt_6 6.6.1
 _ZN7QCamera6zoomToEff@Qt_6 6.6.1
 _ZN7QCamera9setActiveEb@Qt_6 6.6.1
 _ZN7QCameraC1EN13QCameraDevice8PositionEP7QObject@Qt_6 6.6.1
 _ZN7QCameraC1EP7QObject@Qt_6 6.6.1
 _ZN7QCameraC1ERK13QCameraDeviceP7QObject@Qt_6 6.6.1
 _ZN7QCameraC2EN13QCameraDevice8PositionEP7QObject@Qt_6 6.6.1
 _ZN7QCameraC2EP7QObject@Qt_6 6.6.1
 _ZN7QCameraC2ERK13QCameraDeviceP7QObject@Qt_6 6.6.1
 _ZN7QCameraD0Ev@Qt_6 6.6.1
 _ZN7QCameraD1Ev@Qt_6 6.6.1
 _ZN7QCameraD2Ev@Qt_6 6.6.1
 _ZN7QSample10readSampleEv@Qt_6_PRIVATE_API 6.6.1
 _ZN7QSample11qt_metacallEN11QMetaObject4CallEiPPv@Qt_6_PRIVATE_API 6.6.1
 _ZN7QSample11qt_metacastEPKc@Qt_6_PRIVATE_API 6.6.1
 _ZN7QSample12decoderErrorEv@Qt_6_PRIVATE_API 6.6.1
 _ZN7QSample12decoderReadyEv@Qt_6_PRIVATE_API 6.6.1
 _ZN7QSample12loadingErrorEN13QNetworkReply12NetworkErrorE@Qt_6_PRIVATE_API 6.6.1
 _ZN7QSample15loadIfNecessaryEv@Qt_6_PRIVATE_API 6.6.1
 _ZN7QSample16staticMetaObjectE@Qt_6_PRIVATE_API 6.6.1
 _ZN7QSample4loadEv@Qt_6_PRIVATE_API 6.6.1
 _ZN7QSample5errorEv@Qt_6_PRIVATE_API 6.6.1
 _ZN7QSample5readyEv@Qt_6_PRIVATE_API 6.6.1
 _ZN7QSample6addRefEv@Qt_6_PRIVATE_API 6.6.1
 _ZN7QSample7cleanupEv@Qt_6_PRIVATE_API 6.6.1
 _ZN7QSample7onReadyEv@Qt_6_PRIVATE_API 6.6.1
 _ZN7QSample7releaseEv@Qt_6_PRIVATE_API 6.6.1
 _ZN7QSampleC1ERK4QUrlP12QSampleCache@Qt_6_PRIVATE_API 6.6.1
 _ZN7QSampleC2ERK4QUrlP12QSampleCache@Qt_6_PRIVATE_API 6.6.1
 _ZN7QSampleD0Ev@Qt_6_PRIVATE_API 6.6.1
 _ZN7QSampleD1Ev@Qt_6_PRIVATE_API 6.6.1
 _ZN7QSampleD2Ev@Qt_6_PRIVATE_API 6.6.1
 _ZNK10QAudioSink10bufferSizeEv@Qt_6 6.6.1
 _ZNK10QAudioSink10metaObjectEv@Qt_6 6.6.1
 _ZNK10QAudioSink12elapsedUSecsEv@Qt_6 6.6.1
 _ZNK10QAudioSink14processedUSecsEv@Qt_6 6.6.1
 _ZNK10QAudioSink5errorEv@Qt_6 6.6.1
 _ZNK10QAudioSink5stateEv@Qt_6 6.6.1
 _ZNK10QAudioSink6formatEv@Qt_6 6.6.1
 _ZNK10QAudioSink6volumeEv@Qt_6 6.6.1
 _ZNK10QAudioSink9bytesFreeEv@Qt_6 6.6.1
 _ZNK10QVideoSink10metaObjectEv@Qt_6 6.6.1
 _ZNK10QVideoSink10videoFrameEv@Qt_6 6.6.1
 _ZNK10QVideoSink12subtitleTextEv@Qt_6 6.6.1
 _ZNK10QVideoSink17platformVideoSinkEv@Qt_6 6.6.1
 _ZNK10QVideoSink17videoFrameChangedERK11QVideoFrame@Qt_6 6.6.1
 _ZNK10QVideoSink19subtitleTextChangedERK7QString@Qt_6 6.6.1
 _ZNK10QVideoSink3rhiEv@Qt_6 6.6.1
 _ZNK10QVideoSink9videoSizeEv@Qt_6 6.6.1
 _ZNK11QAudioInput10metaObjectEv@Qt_6 6.6.1
 _ZNK11QAudioInput6deviceEv@Qt_6 6.6.1
 _ZNK11QAudioInput6volumeEv@Qt_6 6.6.1
 _ZNK11QAudioInput7isMutedEv@Qt_6 6.6.1
 _ZNK11QVideoFrame10handleTypeEv@Qt_6 6.6.1
 _ZNK11QVideoFrame10isReadableEv@Qt_6 6.6.1
 _ZNK11QVideoFrame10isWritableEv@Qt_6 6.6.1
 _ZNK11QVideoFrame10planeCountEv@Qt_6 6.6.1
 _ZNK11QVideoFrame11mappedBytesEi@Qt_6 6.6.1
 _ZNK11QVideoFrame11pixelFormatEv@Qt_6 6.6.1
 _ZNK11QVideoFrame11videoBufferEv@Qt_6 6.6.1
 _ZNK11QVideoFrame12bytesPerLineEi@Qt_6 6.6.1
 _ZNK11QVideoFrame12subtitleTextEv@Qt_6 6.6.1
 _ZNK11QVideoFrame13rotationAngleEv@Qt_6 6.6.1
 _ZNK11QVideoFrame13surfaceFormatEv@Qt_6 6.6.1
 _ZNK11QVideoFrame4bitsEi@Qt_6 6.6.1
 _ZNK11QVideoFrame4sizeEv@Qt_6 6.6.1
 _ZNK11QVideoFrame5widthEv@Qt_6 6.6.1
 _ZNK11QVideoFrame6heightEv@Qt_6 6.6.1
 _ZNK11QVideoFrame7endTimeEv@Qt_6 6.6.1
 _ZNK11QVideoFrame7isValidEv@Qt_6 6.6.1
 _ZNK11QVideoFrame7mapModeEv@Qt_6 6.6.1
 _ZNK11QVideoFrame7toImageEv@Qt_6 6.6.1
 _ZNK11QVideoFrame8isMappedEv@Qt_6 6.6.1
 _ZNK11QVideoFrame8mirroredEv@Qt_6 6.6.1
 _ZNK11QVideoFrame9startTimeEv@Qt_6 6.6.1
 _ZNK11QVideoFrameeqERKS_@Qt_6 6.6.1
 _ZNK11QVideoFrameneERKS_@Qt_6 6.6.1
 _ZNK12QAudioBuffer10frameCountEv@Qt_6 6.6.1
 _ZNK12QAudioBuffer11sampleCountEv@Qt_6 6.6.1
 _ZNK12QAudioBuffer4dataEv@Qt_6 6.6.1
 _ZNK12QAudioBuffer6formatEv@Qt_6 6.6.1
 _ZNK12QAudioBuffer8durationEv@Qt_6 6.6.1
 _ZNK12QAudioBuffer9byteCountEv@Qt_6 6.6.1
 _ZNK12QAudioBuffer9constDataEv@Qt_6 6.6.1
 _ZNK12QAudioBuffer9startTimeEv@Qt_6 6.6.1
 _ZNK12QAudioDevice11descriptionEv@Qt_6 6.6.1
 _ZNK12QAudioDevice15preferredFormatEv@Qt_6 6.6.1
 _ZNK12QAudioDevice17isFormatSupportedERK12QAudioFormat@Qt_6 6.6.1
 _ZNK12QAudioDevice17maximumSampleRateEv@Qt_6 6.6.1
 _ZNK12QAudioDevice17minimumSampleRateEv@Qt_6 6.6.1
 _ZNK12QAudioDevice19maximumChannelCountEv@Qt_6 6.6.1
 _ZNK12QAudioDevice19minimumChannelCountEv@Qt_6 6.6.1
 _ZNK12QAudioDevice20channelConfigurationEv@Qt_6 6.6.1
 _ZNK12QAudioDevice22supportedSampleFormatsEv@Qt_6 6.6.1
 _ZNK12QAudioDevice2idEv@Qt_6 6.6.1
 _ZNK12QAudioDevice4modeEv@Qt_6 6.6.1
 _ZNK12QAudioDevice6isNullEv@Qt_6 6.6.1
 _ZNK12QAudioDevice9isDefaultEv@Qt_6 6.6.1
 _ZNK12QAudioDeviceeqERKS_@Qt_6 6.6.1
 _ZNK12QAudioDeviceneERKS_@Qt_6 6.6.1
 _ZNK12QAudioFormat13channelOffsetENS_20AudioChannelPositionE@Qt_6 6.6.1
 _ZNK12QAudioFormat14bytesForFramesEi@Qt_6 6.6.1
 _ZNK12QAudioFormat14framesForBytesEi@Qt_6 6.6.1
 _ZNK12QAudioFormat16bytesForDurationEx@Qt_6 6.6.1
 _ZNK12QAudioFormat16durationForBytesEi@Qt_6 6.6.1
 _ZNK12QAudioFormat17durationForFramesEi@Qt_6 6.6.1
 _ZNK12QAudioFormat17framesForDurationEx@Qt_6 6.6.1
 _ZNK12QAudioFormat21normalizedSampleValueEPKv@Qt_6 6.6.1
 _ZNK12QAudioOutput10metaObjectEv@Qt_6 6.6.1
 _ZNK12QAudioOutput6deviceEv@Qt_6 6.6.1
 _ZNK12QAudioOutput6volumeEv@Qt_6 6.6.1
 _ZNK12QAudioOutput7isMutedEv@Qt_6 6.6.1
 _ZNK12QAudioSource10bufferSizeEv@Qt_6 6.6.1
 _ZNK12QAudioSource10metaObjectEv@Qt_6 6.6.1
 _ZNK12QAudioSource12elapsedUSecsEv@Qt_6 6.6.1
 _ZNK12QAudioSource14bytesAvailableEv@Qt_6 6.6.1
 _ZNK12QAudioSource14processedUSecsEv@Qt_6 6.6.1
 _ZNK12QAudioSource5errorEv@Qt_6 6.6.1
 _ZNK12QAudioSource5stateEv@Qt_6 6.6.1
 _ZNK12QAudioSource6formatEv@Qt_6 6.6.1
 _ZNK12QAudioSource6volumeEv@Qt_6 6.6.1
 _ZNK12QMediaFormat11isSupportedENS_14ConversionModeE@Qt_6 6.6.1
 _ZNK12QMediaFormat8mimeTypeEv@Qt_6 6.6.1
 _ZNK12QMediaFormateqERKS_@Qt_6 6.6.1
 _ZNK12QMediaPlayer10isSeekableEv@Qt_6 6.6.1
 _ZNK12QMediaPlayer10metaObjectEv@Qt_6 6.6.1
 _ZNK12QMediaPlayer11audioOutputEv@Qt_6 6.6.1
 _ZNK12QMediaPlayer11audioTracksEv@Qt_6 6.6.1
 _ZNK12QMediaPlayer11errorStringEv@Qt_6 6.6.1
 _ZNK12QMediaPlayer11isAvailableEv@Qt_6 6.6.1
 _ZNK12QMediaPlayer11mediaStatusEv@Qt_6 6.6.1
 _ZNK12QMediaPlayer11videoOutputEv@Qt_6 6.6.1
 _ZNK12QMediaPlayer11videoTracksEv@Qt_6 6.6.1
 _ZNK12QMediaPlayer12playbackRateEv@Qt_6 6.6.1
 _ZNK12QMediaPlayer12sourceDeviceEv@Qt_6 6.6.1
 _ZNK12QMediaPlayer13playbackStateEv@Qt_6 6.6.1
 _ZNK12QMediaPlayer14bufferProgressEv@Qt_6 6.6.1
 _ZNK12QMediaPlayer14subtitleTracksEv@Qt_6 6.6.1
 _ZNK12QMediaPlayer16activeAudioTrackEv@Qt_6 6.6.1
 _ZNK12QMediaPlayer16activeVideoTrackEv@Qt_6 6.6.1
 _ZNK12QMediaPlayer17bufferedTimeRangeEv@Qt_6 6.6.1
 _ZNK12QMediaPlayer19activeSubtitleTrackEv@Qt_6 6.6.1
 _ZNK12QMediaPlayer5errorEv@Qt_6 6.6.1
 _ZNK12QMediaPlayer5loopsEv@Qt_6 6.6.1
 _ZNK12QMediaPlayer6sourceEv@Qt_6 6.6.1
 _ZNK12QMediaPlayer8durationEv@Qt_6 6.6.1
 _ZNK12QMediaPlayer8hasAudioEv@Qt_6 6.6.1
 _ZNK12QMediaPlayer8hasVideoEv@Qt_6 6.6.1
 _ZNK12QMediaPlayer8metaDataEv@Qt_6 6.6.1
 _ZNK12QMediaPlayer8positionEv@Qt_6 6.6.1
 _ZNK12QMediaPlayer9isPlayingEv@Qt_6 6.6.1
 _ZNK12QMediaPlayer9videoSinkEv@Qt_6 6.6.1
 _ZNK12QSampleCache10metaObjectEv@Qt_6_PRIVATE_API 6.6.1
 _ZNK12QSampleCache8isCachedERK4QUrl@Qt_6_PRIVATE_API 6.6.1
 _ZNK12QSampleCache9isLoadingEv@Qt_6_PRIVATE_API 6.6.1
 _ZNK12QSoundEffect10metaObjectEv@Qt_6 6.6.1
 _ZNK12QSoundEffect14loopsRemainingEv@Qt_6 6.6.1
 _ZNK12QSoundEffect6sourceEv@Qt_6 6.6.1
 _ZNK12QSoundEffect6statusEv@Qt_6 6.6.1
 _ZNK12QSoundEffect6volumeEv@Qt_6 6.6.1
 _ZNK12QSoundEffect7isMutedEv@Qt_6 6.6.1
 _ZNK12QSoundEffect8isLoadedEv@Qt_6 6.6.1
 _ZNK12QSoundEffect9isPlayingEv@Qt_6 6.6.1
 _ZNK12QSoundEffect9loopCountEv@Qt_6 6.6.1
 _ZNK12QVideoWindow10metaObjectEv@Qt_6_PRIVATE_API 6.6.1
 _ZNK12QVideoWindow15aspectRatioModeEv@Qt_6_PRIVATE_API 6.6.1
 _ZNK12QVideoWindow9videoSinkEv@Qt_6_PRIVATE_API 6.6.1
 _ZNK12QWaveDecoder10metaObjectEv@Qt_6 6.6.1
 _ZNK12QWaveDecoder11audioFormatEv@Qt_6 6.6.1
 _ZNK12QWaveDecoder12isSequentialEv@Qt_6 6.6.1
 _ZNK12QWaveDecoder14bytesAvailableEv@Qt_6 6.6.1
 _ZNK12QWaveDecoder3posEv@Qt_6 6.6.1
 _ZNK12QWaveDecoder4sizeEv@Qt_6 6.6.1
 _ZNK12QWaveDecoder8durationEv@Qt_6 6.6.1
 _ZNK13QAudioDecoder10isDecodingEv@Qt_6 6.6.1
 _ZNK13QAudioDecoder10metaObjectEv@Qt_6 6.6.1
 _ZNK13QAudioDecoder11audioFormatEv@Qt_6 6.6.1
 _ZNK13QAudioDecoder11errorStringEv@Qt_6 6.6.1
 _ZNK13QAudioDecoder11isSupportedEv@Qt_6 6.6.1
 _ZNK13QAudioDecoder12sourceDeviceEv@Qt_6 6.6.1
 _ZNK13QAudioDecoder15bufferAvailableEv@Qt_6 6.6.1
 _ZNK13QAudioDecoder4readEv@Qt_6 6.6.1
 _ZNK13QAudioDecoder5errorEv@Qt_6 6.6.1
 _ZNK13QAudioDecoder6sourceEv@Qt_6 6.6.1
 _ZNK13QAudioDecoder8durationEv@Qt_6 6.6.1
 _ZNK13QAudioDecoder8positionEv@Qt_6 6.6.1
 _ZNK13QCameraDevice11descriptionEv@Qt_6 6.6.1
 _ZNK13QCameraDevice12videoFormatsEv@Qt_6 6.6.1
 _ZNK13QCameraDevice16photoResolutionsEv@Qt_6 6.6.1
 _ZNK13QCameraDevice2idEv@Qt_6 6.6.1
 _ZNK13QCameraDevice6isNullEv@Qt_6 6.6.1
 _ZNK13QCameraDevice8positionEv@Qt_6 6.6.1
 _ZNK13QCameraDevice9isDefaultEv@Qt_6 6.6.1
 _ZNK13QCameraDeviceeqERKS_@Qt_6 6.6.1
 _ZNK13QCameraFormat10resolutionEv@Qt_6 6.6.1
 _ZNK13QCameraFormat11pixelFormatEv@Qt_6 6.6.1
 _ZNK13QCameraFormat12maxFrameRateEv@Qt_6 6.6.1
 _ZNK13QCameraFormat12minFrameRateEv@Qt_6 6.6.1
 _ZNK13QCameraFormateqERKS_@Qt_6 6.6.1
 _ZNK13QImageCapture10fileFormatEv@Qt_6 6.6.1
 _ZNK13QImageCapture10metaObjectEv@Qt_6 6.6.1
 _ZNK13QImageCapture10resolutionEv@Qt_6 6.6.1
 _ZNK13QImageCapture11errorStringEv@Qt_6 6.6.1
 _ZNK13QImageCapture11isAvailableEv@Qt_6 6.6.1
 _ZNK13QImageCapture14captureSessionEv@Qt_6 6.6.1
 _ZNK13QImageCapture17isReadyForCaptureEv@Qt_6 6.6.1
 _ZNK13QImageCapture5errorEv@Qt_6 6.6.1
 _ZNK13QImageCapture7qualityEv@Qt_6 6.6.1
 _ZNK13QImageCapture8metaDataEv@Qt_6 6.6.1
 _ZNK13QMediaDevices10metaObjectEv@Qt_6 6.6.1
 _ZNK14QMediaMetaData11stringValueENS_3KeyE@Qt_6 6.6.1
 _ZNK14QMediaRecorder10metaObjectEv@Qt_6 6.6.1
 _ZNK14QMediaRecorder11errorStringEv@Qt_6 6.6.1
 _ZNK14QMediaRecorder11isAvailableEv@Qt_6 6.6.1
 _ZNK14QMediaRecorder11mediaFormatEv@Qt_6 6.6.1
 _ZNK14QMediaRecorder12audioBitRateEv@Qt_6 6.6.1
 _ZNK14QMediaRecorder12encodingModeEv@Qt_6 6.6.1
 _ZNK14QMediaRecorder12videoBitRateEv@Qt_6 6.6.1
 _ZNK14QMediaRecorder13recorderStateEv@Qt_6 6.6.1
 _ZNK14QMediaRecorder14actualLocationEv@Qt_6 6.6.1
 _ZNK14QMediaRecorder14captureSessionEv@Qt_6 6.6.1
 _ZNK14QMediaRecorder14outputLocationEv@Qt_6 6.6.1
 _ZNK14QMediaRecorder14videoFrameRateEv@Qt_6 6.6.1
 _ZNK14QMediaRecorder15audioSampleRateEv@Qt_6 6.6.1
 _ZNK14QMediaRecorder15platformRecoderEv@Qt_6 6.6.1
 _ZNK14QMediaRecorder15videoResolutionEv@Qt_6 6.6.1
 _ZNK14QMediaRecorder17audioChannelCountEv@Qt_6 6.6.1
 _ZNK14QMediaRecorder5errorEv@Qt_6 6.6.1
 _ZNK14QMediaRecorder7qualityEv@Qt_6 6.6.1
 _ZNK14QMediaRecorder8durationEv@Qt_6 6.6.1
 _ZNK14QMediaRecorder8metaDataEv@Qt_6 6.6.1
 _ZNK14QScreenCapture10metaObjectEv@Qt_6 6.6.1
 _ZNK14QScreenCapture11errorStringEv@Qt_6 6.6.1
 _ZNK14QScreenCapture14captureSessionEv@Qt_6 6.6.1
 _ZNK14QScreenCapture21platformScreenCaptureEv@Qt_6 6.6.1
 _ZNK14QScreenCapture5errorEv@Qt_6 6.6.1
 _ZNK14QScreenCapture6screenEv@Qt_6 6.6.1
 _ZNK14QScreenCapture8isActiveEv@Qt_6 6.6.1
 _ZNK14QWindowCapture10metaObjectEv@Qt_6 6.6.1
 _ZNK14QWindowCapture11errorStringEv@Qt_6 6.6.1
 _ZNK14QWindowCapture14captureSessionEv@Qt_6 6.6.1
 _ZNK14QWindowCapture21platformWindowCaptureEv@Qt_6 6.6.1
 _ZNK14QWindowCapture5errorEv@Qt_6 6.6.1
 _ZNK14QWindowCapture6windowEv@Qt_6 6.6.1
 _ZNK14QWindowCapture8isActiveEv@Qt_6 6.6.1
 _ZNK15QMediaTimeRange10latestTimeEv@Qt_6 6.6.1
 _ZNK15QMediaTimeRange12earliestTimeEv@Qt_6 6.6.1
 _ZNK15QMediaTimeRange12isContinuousEv@Qt_6 6.6.1
 _ZNK15QMediaTimeRange7isEmptyEv@Qt_6 6.6.1
 _ZNK15QMediaTimeRange8containsEx@Qt_6 6.6.1
 _ZNK15QMediaTimeRange9intervalsEv@Qt_6 6.6.1
 _ZNK15QPlatformCamera10metaObjectEv@Qt_6_PRIVATE_API 6.6.1
 _ZNK15QPlatformCamera11frameFormatEv@Qt_6_PRIVATE_API 6.6.1
 _ZNK15QPlatformCamera20findBestCameraFormatERK13QCameraDevice@Qt_6_PRIVATE_API 6.6.1
 _ZNK17QCapturableWindow11descriptionEv@Qt_6 6.6.1
 _ZNK17QCapturableWindow7isValidEv@Qt_6 6.6.1
 _ZNK17QVideoFrameFormat10colorRangeEv@Qt_6 6.6.1
 _ZNK17QVideoFrameFormat10colorSpaceEv@Qt_6 6.6.1
 _ZNK17QVideoFrameFormat10frameWidthEv@Qt_6 6.6.1
 _ZNK17QVideoFrameFormat10isMirroredEv@Qt_6 6.6.1
 _ZNK17QVideoFrameFormat10planeCountEv@Qt_6 6.6.1
 _ZNK17QVideoFrameFormat11frameHeightEv@Qt_6 6.6.1
 _ZNK17QVideoFrameFormat11pixelFormatEv@Qt_6 6.6.1
 _ZNK17QVideoFrameFormat12maxLuminanceEv@Qt_6 6.6.1
 _ZNK17QVideoFrameFormat13colorTransferEv@Qt_6 6.6.1
 _ZNK17QVideoFrameFormat15yCbCrColorSpaceEv@Qt_6 6.6.1
 _ZNK17QVideoFrameFormat17scanLineDirectionEv@Qt_6 6.6.1
 _ZNK17QVideoFrameFormat17updateUniformDataEP10QByteArrayRK11QVideoFrameRK10QMatrix4x4f@Qt_6 6.6.1
 _ZNK17QVideoFrameFormat20vertexShaderFileNameEv@Qt_6 6.6.1
 _ZNK17QVideoFrameFormat22fragmentShaderFileNameEv@Qt_6 6.6.1
 _ZNK17QVideoFrameFormat7isValidEv@Qt_6 6.6.1
 _ZNK17QVideoFrameFormat8viewportEv@Qt_6 6.6.1
 _ZNK17QVideoFrameFormat9frameRateEv@Qt_6 6.6.1
 _ZNK17QVideoFrameFormat9frameSizeEv@Qt_6 6.6.1
 _ZNK17QVideoFrameFormateqERKS_@Qt_6 6.6.1
 _ZNK17QVideoFrameFormatneERKS_@Qt_6 6.6.1
 _ZNK18QAudioStateMachine10isDrainingEv@Qt_6_PRIVATE_API 6.6.1
 _ZNK18QAudioStateMachine14isActiveOrIdleEv@Qt_6_PRIVATE_API 6.6.1
 _ZNK18QAudioStateMachine20getDrainedAndStoppedEv@Qt_6_PRIVATE_API 6.6.1
 _ZNK18QAudioStateMachine5errorEv@Qt_6_PRIVATE_API 6.6.1
 _ZNK18QAudioStateMachine5stateEv@Qt_6_PRIVATE_API 6.6.1
 _ZNK18QMemoryVideoBuffer7mapModeEv@Qt_6_PRIVATE_API 6.6.1
 _ZNK18QPlatformAudioSink10metaObjectEv@Qt_6_PRIVATE_API 6.6.1
 _ZNK18QPlatformAudioSink6volumeEv@Qt_6_PRIVATE_API 6.6.1
 _ZNK18QPlatformVideoSink10metaObjectEv@Qt_6_PRIVATE_API 6.6.1
 _ZNK18QPlatformVideoSink10nativeSizeEv@Qt_6_PRIVATE_API 6.6.1
 _ZNK18QPlatformVideoSink12subtitleTextEv@Qt_6_PRIVATE_API 6.6.1
 _ZNK18QPlatformVideoSink17currentVideoFrameEv@Qt_6_PRIVATE_API 6.6.1
 _ZNK19QVideoTextureHelper14SubtitleLayout4drawEP8QPainterRK7QPointF@Qt_6 6.6.1
 _ZNK19QVideoTextureHelper14SubtitleLayout7toImageEv@Qt_6 6.6.1
 _ZNK20QAbstractVideoBuffer10handleTypeEv@Qt_6_PRIVATE_API 6.6.1
 _ZNK20QAbstractVideoBuffer3rhiEv@Qt_6_PRIVATE_API 6.6.1
 _ZNK20QMediaCaptureSession10audioInputEv@Qt_6 6.6.1
 _ZNK20QMediaCaptureSession10metaObjectEv@Qt_6 6.6.1
 _ZNK20QMediaCaptureSession11audioOutputEv@Qt_6 6.6.1
 _ZNK20QMediaCaptureSession11videoOutputEv@Qt_6 6.6.1
 _ZNK20QMediaCaptureSession15platformSessionEv@Qt_6 6.6.1
 _ZNK20QMediaCaptureSession6cameraEv@Qt_6 6.6.1
 _ZNK20QMediaCaptureSession9videoSinkEv@Qt_6 6.6.1
 _ZNK20QPlatformAudioSource10metaObjectEv@Qt_6_PRIVATE_API 6.6.1
 _ZNK20QPlatformMediaPlugin10metaObjectEv@Qt_6_PRIVATE_API 6.6.1
 _ZNK20QPlatformVideoSource10metaObjectEv@Qt_6_PRIVATE_API 6.6.1
 _ZNK20QPlatformVideoSource19ffmpegHWPixelFormatEv@Qt_6_PRIVATE_API 6.6.1
 _ZNK21QPlatformAudioDecoder10metaObjectEv@Qt_6_PRIVATE_API 6.6.1
 _ZNK21QPlatformImageCapture10metaObjectEv@Qt_6_PRIVATE_API 6.6.1
 _ZNK21QPlatformMediaDevices10metaObjectEv@Qt_6_PRIVATE_API 6.6.1
 _ZNK21QPlatformMediaDevices11audioInputsEv@Qt_6_PRIVATE_API 6.6.1
 _ZNK21QPlatformMediaDevices12audioOutputsEv@Qt_6_PRIVATE_API 6.6.1
 _ZNK21QPlatformVideoDevices10metaObjectEv@Qt_6_PRIVATE_API 6.6.1
 _ZNK23QPlatformSurfaceCapture10metaObjectEv@Qt_6_PRIVATE_API 6.6.1
 _ZNK23QPlatformSurfaceCapture11errorStringEv@Qt_6_PRIVATE_API 6.6.1
 _ZNK23QPlatformSurfaceCapture5errorEv@Qt_6_PRIVATE_API 6.6.1
 _ZNK23QPlatformSurfaceCapture8isActiveEv@Qt_6_PRIVATE_API 6.6.1
 _ZNK24QPlatformMediaFormatInfo11isSupportedERK12QMediaFormatNS0_14ConversionModeE@Qt_6_PRIVATE_API 6.6.1
 _ZNK24QPlatformMediaFormatInfo20supportedAudioCodecsERK12QMediaFormatNS0_14ConversionModeE@Qt_6_PRIVATE_API 6.6.1
 _ZNK24QPlatformMediaFormatInfo20supportedFileFormatsERK12QMediaFormatNS0_14ConversionModeE@Qt_6_PRIVATE_API 6.6.1
 _ZNK24QPlatformMediaFormatInfo20supportedVideoCodecsERK12QMediaFormatNS0_14ConversionModeE@Qt_6_PRIVATE_API 6.6.1
 _ZNK25QAudioStateChangeNotifier10metaObjectEv@Qt_6_PRIVATE_API 6.6.1
 _ZNK28QPlatformMediaCaptureSession10metaObjectEv@Qt_6_PRIVATE_API 6.6.1
 _ZNK30QVideoOutputOrientationHandler10metaObjectEv@Qt_6_PRIVATE_API 6.6.1
 _ZNK30QVideoOutputOrientationHandler18currentOrientationEv@Qt_6_PRIVATE_API 6.6.1
 _ZNK7QCamera10focusPointEv@Qt_6 6.6.1
 _ZNK7QCamera10metaObjectEv@Qt_6 6.6.1
 _ZNK7QCamera10zoomFactorEv@Qt_6 6.6.1
 _ZNK7QCamera11errorStringEv@Qt_6 6.6.1
 _ZNK7QCamera11isAvailableEv@Qt_6 6.6.1
 _ZNK7QCamera12cameraDeviceEv@Qt_6 6.6.1
 _ZNK7QCamera12cameraFormatEv@Qt_6 6.6.1
 _ZNK7QCamera12exposureModeEv@Qt_6 6.6.1
 _ZNK7QCamera12exposureTimeEv@Qt_6 6.6.1
 _ZNK7QCamera12isFlashReadyEv@Qt_6 6.6.1
 _ZNK7QCamera13focusDistanceEv@Qt_6 6.6.1
 _ZNK7QCamera14captureSessionEv@Qt_6 6.6.1
 _ZNK7QCamera14isoSensitivityEv@Qt_6 6.6.1
 _ZNK7QCamera16colorTemperatureEv@Qt_6 6.6.1
 _ZNK7QCamera16customFocusPointEv@Qt_6 6.6.1
 _ZNK7QCamera16whiteBalanceModeEv@Qt_6 6.6.1
 _ZNK7QCamera17maximumZoomFactorEv@Qt_6 6.6.1
 _ZNK7QCamera17minimumZoomFactorEv@Qt_6 6.6.1
 _ZNK7QCamera17supportedFeaturesEv@Qt_6 6.6.1
 _ZNK7QCamera18manualExposureTimeEv@Qt_6 6.6.1
 _ZNK7QCamera19maximumExposureTimeEv@Qt_6 6.6.1
 _ZNK7QCamera19minimumExposureTimeEv@Qt_6 6.6.1
 _ZNK7QCamera20exposureCompensationEv@Qt_6 6.6.1
 _ZNK7QCamera20isFlashModeSupportedENS_9FlashModeE@Qt_6 6.6.1
 _ZNK7QCamera20isFocusModeSupportedENS_9FocusModeE@Qt_6 6.6.1
 _ZNK7QCamera20isTorchModeSupportedENS_9TorchModeE@Qt_6 6.6.1
 _ZNK7QCamera20manualIsoSensitivityEv@Qt_6 6.6.1
 _ZNK7QCamera21maximumIsoSensitivityEv@Qt_6 6.6.1
 _ZNK7QCamera21minimumIsoSensitivityEv@Qt_6 6.6.1
 _ZNK7QCamera23colorTemperatureChangedEv@Qt_6 6.6.1
 _ZNK7QCamera23isExposureModeSupportedENS_12ExposureModeE@Qt_6 6.6.1
 _ZNK7QCamera23whiteBalanceModeChangedEv@Qt_6 6.6.1
 _ZNK7QCamera27isWhiteBalanceModeSupportedENS_16WhiteBalanceModeE@Qt_6 6.6.1
 _ZNK7QCamera5errorEv@Qt_6 6.6.1
 _ZNK7QCamera8isActiveEv@Qt_6 6.6.1
 _ZNK7QCamera9flashModeEv@Qt_6 6.6.1
 _ZNK7QCamera9focusModeEv@Qt_6 6.6.1
 _ZNK7QCamera9torchModeEv@Qt_6 6.6.1
 _ZNK7QSample10metaObjectEv@Qt_6_PRIVATE_API 6.6.1
 _ZNK7QSample5stateEv@Qt_6_PRIVATE_API 6.6.1
 _ZTI10QAudioSink@Qt_6 6.6.1
 _ZTI10QVideoSink@Qt_6 6.6.1
 _ZTI11QAudioInput@Qt_6 6.6.1
 _ZTI12QAudioOutput@Qt_6 6.6.1
 _ZTI12QAudioSource@Qt_6 6.6.1
 _ZTI12QMediaPlayer@Qt_6 6.6.1
 _ZTI12QSampleCache@Qt_6_PRIVATE_API 6.6.1
 _ZTI12QSoundEffect@Qt_6 6.6.1
 _ZTI12QVideoWindow@Qt_6_PRIVATE_API 6.6.1
 _ZTI12QWaveDecoder@Qt_6 6.6.1
 _ZTI13QAudioDecoder@Qt_6 6.6.1
 _ZTI13QImageCapture@Qt_6 6.6.1
 _ZTI13QMediaDevices@Qt_6 6.6.1
 _ZTI14QMediaRecorder@Qt_6 6.6.1
 _ZTI14QScreenCapture@Qt_6 6.6.1
 _ZTI14QWindowCapture@Qt_6 6.6.1
 _ZTI15QPlatformCamera@Qt_6_PRIVATE_API 6.6.1
 _ZTI18QMemoryVideoBuffer@Qt_6_PRIVATE_API 6.6.1
 _ZTI18QPlatformAudioSink@Qt_6_PRIVATE_API 6.6.1
 _ZTI18QPlatformVideoSink@Qt_6_PRIVATE_API 6.6.1
 _ZTI19QAudioDevicePrivate@Qt_6_PRIVATE_API 6.6.1
 _ZTI19QVideoFrameTextures@Qt_6_PRIVATE_API 6.6.1
 _ZTI20QAbstractVideoBuffer@Qt_6_PRIVATE_API 6.6.1
 _ZTI20QMediaCaptureSession@Qt_6 6.6.1
 _ZTI20QPlatformAudioSource@Qt_6_PRIVATE_API 6.6.1
 _ZTI20QPlatformMediaPlayer@Qt_6_PRIVATE_API 6.6.1
 _ZTI20QPlatformMediaPlugin@Qt_6_PRIVATE_API 6.6.1
 _ZTI20QPlatformVideoSource@Qt_6_PRIVATE_API 6.6.1
 _ZTI21QPlatformAudioDecoder@Qt_6_PRIVATE_API 6.6.1
 _ZTI21QPlatformImageCapture@Qt_6_PRIVATE_API 6.6.1
 _ZTI21QPlatformMediaDevices@Qt_6_PRIVATE_API 6.6.1
 _ZTI21QPlatformVideoDevices@Qt_6_PRIVATE_API 6.6.1
 _ZTI22QPlatformMediaRecorder@Qt_6_PRIVATE_API 6.6.1
 _ZTI23QPlatformSurfaceCapture@Qt_6_PRIVATE_API 6.6.1
 _ZTI24QPlatformMediaFormatInfo@Qt_6_PRIVATE_API 6.6.1
 _ZTI25QAudioStateChangeNotifier@Qt_6_PRIVATE_API 6.6.1
 _ZTI25QPlatformMediaIntegration@Qt_6_PRIVATE_API 6.6.1
 _ZTI28QPlatformMediaCaptureSession@Qt_6_PRIVATE_API 6.6.1
 _ZTI30QVideoOutputOrientationHandler@Qt_6_PRIVATE_API 6.6.1
 _ZTI7QCamera@Qt_6 6.6.1
 _ZTI7QSample@Qt_6_PRIVATE_API 6.6.1
 _ZTIZN9QMetaType17registerConverterI5QListI12QAudioDeviceE9QIterableI13QMetaSequenceEN9QtPrivate33QSequentialIterableConvertFunctorIS3_EEEEbT1_EUlPKvPvE_@Qt_6 6.6.1
 _ZTIZN9QMetaType17registerConverterI5QListI13QCameraDeviceE9QIterableI13QMetaSequenceEN9QtPrivate33QSequentialIterableConvertFunctorIS3_EEEEbT1_EUlPKvPvE_@Qt_6 6.6.1
 _ZTIZN9QMetaType17registerConverterI5QListI13QCameraFormatE9QIterableI13QMetaSequenceEN9QtPrivate33QSequentialIterableConvertFunctorIS3_EEEEbT1_EUlPKvPvE_@Qt_6 6.6.1
 _ZTIZN9QMetaType17registerConverterI5QListI14QMediaMetaDataE9QIterableI13QMetaSequenceEN9QtPrivate33QSequentialIterableConvertFunctorIS3_EEEEbT1_EUlPKvPvE_@Qt_6 6.6.1
 _ZTIZN9QMetaType17registerConverterI5QListI17QCapturableWindowE9QIterableI13QMetaSequenceEN9QtPrivate33QSequentialIterableConvertFunctorIS3_EEEEbT1_EUlPKvPvE_@Qt_6 6.6.1
 _ZTIZN9QMetaType17registerConverterI5QListIN12QMediaFormat10AudioCodecEE9QIterableI13QMetaSequenceEN9QtPrivate33QSequentialIterableConvertFunctorIS4_EEEEbT1_EUlPKvPvE_@Qt_6 6.6.1
 _ZTIZN9QMetaType17registerConverterI5QListIN12QMediaFormat10FileFormatEE9QIterableI13QMetaSequenceEN9QtPrivate33QSequentialIterableConvertFunctorIS4_EEEEbT1_EUlPKvPvE_@Qt_6 6.6.1
 _ZTIZN9QMetaType17registerConverterI5QListIN12QMediaFormat10VideoCodecEE9QIterableI13QMetaSequenceEN9QtPrivate33QSequentialIterableConvertFunctorIS4_EEEEbT1_EUlPKvPvE_@Qt_6 6.6.1
 _ZTIZN9QMetaType17registerConverterI5QListIN14QMediaMetaData3KeyEE9QIterableI13QMetaSequenceEN9QtPrivate33QSequentialIterableConvertFunctorIS4_EEEEbT1_EUlPKvPvE_@Qt_6 6.6.1
 _ZTIZN9QMetaType17registerConverterI8QPointerI7QScreenEP7QObjectN9QtPrivate27QSmartPointerConvertFunctorIS3_EEEEbT1_EUlPKvPvE_@Qt_6 6.6.1
 _ZTIZN9QMetaType19registerMutableViewI5QListI12QAudioDeviceE9QIterableI13QMetaSequenceEN9QtPrivate37QSequentialIterableMutableViewFunctorIS3_EEEEbT1_EUlPvSB_E_@Qt_6 6.6.1
 _ZTIZN9QMetaType19registerMutableViewI5QListI13QCameraDeviceE9QIterableI13QMetaSequenceEN9QtPrivate37QSequentialIterableMutableViewFunctorIS3_EEEEbT1_EUlPvSB_E_@Qt_6 6.6.1
 _ZTIZN9QMetaType19registerMutableViewI5QListI13QCameraFormatE9QIterableI13QMetaSequenceEN9QtPrivate37QSequentialIterableMutableViewFunctorIS3_EEEEbT1_EUlPvSB_E_@Qt_6 6.6.1
 _ZTIZN9QMetaType19registerMutableViewI5QListI14QMediaMetaDataE9QIterableI13QMetaSequenceEN9QtPrivate37QSequentialIterableMutableViewFunctorIS3_EEEEbT1_EUlPvSB_E_@Qt_6 6.6.1
 _ZTIZN9QMetaType19registerMutableViewI5QListI17QCapturableWindowE9QIterableI13QMetaSequenceEN9QtPrivate37QSequentialIterableMutableViewFunctorIS3_EEEEbT1_EUlPvSB_E_@Qt_6 6.6.1
 _ZTIZN9QMetaType19registerMutableViewI5QListIN12QMediaFormat10AudioCodecEE9QIterableI13QMetaSequenceEN9QtPrivate37QSequentialIterableMutableViewFunctorIS4_EEEEbT1_EUlPvSC_E_@Qt_6 6.6.1
 _ZTIZN9QMetaType19registerMutableViewI5QListIN12QMediaFormat10FileFormatEE9QIterableI13QMetaSequenceEN9QtPrivate37QSequentialIterableMutableViewFunctorIS4_EEEEbT1_EUlPvSC_E_@Qt_6 6.6.1
 _ZTIZN9QMetaType19registerMutableViewI5QListIN12QMediaFormat10VideoCodecEE9QIterableI13QMetaSequenceEN9QtPrivate37QSequentialIterableMutableViewFunctorIS4_EEEEbT1_EUlPvSC_E_@Qt_6 6.6.1
 _ZTIZN9QMetaType19registerMutableViewI5QListIN14QMediaMetaData3KeyEE9QIterableI13QMetaSequenceEN9QtPrivate37QSequentialIterableMutableViewFunctorIS4_EEEEbT1_EUlPvSC_E_@Qt_6 6.6.1
 _ZTS10QAudioSink@Qt_6 6.6.1
 _ZTS10QVideoSink@Qt_6 6.6.1
 _ZTS11QAudioInput@Qt_6 6.6.1
 _ZTS12QAudioOutput@Qt_6 6.6.1
 _ZTS12QAudioSource@Qt_6 6.6.1
 _ZTS12QMediaPlayer@Qt_6 6.6.1
 _ZTS12QSampleCache@Qt_6_PRIVATE_API 6.6.1
 _ZTS12QSoundEffect@Qt_6 6.6.1
 _ZTS12QVideoWindow@Qt_6_PRIVATE_API 6.6.1
 _ZTS12QWaveDecoder@Qt_6 6.6.1
 _ZTS13QAudioDecoder@Qt_6 6.6.1
 _ZTS13QImageCapture@Qt_6 6.6.1
 _ZTS13QMediaDevices@Qt_6 6.6.1
 _ZTS14QMediaRecorder@Qt_6 6.6.1
 _ZTS14QScreenCapture@Qt_6 6.6.1
 _ZTS14QWindowCapture@Qt_6 6.6.1
 _ZTS15QPlatformCamera@Qt_6_PRIVATE_API 6.6.1
 _ZTS18QMemoryVideoBuffer@Qt_6_PRIVATE_API 6.6.1
 _ZTS18QPlatformAudioSink@Qt_6_PRIVATE_API 6.6.1
 _ZTS18QPlatformVideoSink@Qt_6_PRIVATE_API 6.6.1
 _ZTS19QAudioDevicePrivate@Qt_6_PRIVATE_API 6.6.1
 _ZTS19QPlatformAudioInput@Qt_6_PRIVATE_API 6.6.1
 _ZTS19QVideoFrameTextures@Qt_6_PRIVATE_API 6.6.1
 _ZTS20QAbstractVideoBuffer@Qt_6_PRIVATE_API 6.6.1
 _ZTS20QMediaCaptureSession@Qt_6 6.6.1
 _ZTS20QPlatformAudioOutput@Qt_6_PRIVATE_API 6.6.1
 _ZTS20QPlatformAudioSource@Qt_6_PRIVATE_API 6.6.1
 _ZTS20QPlatformMediaPlayer@Qt_6_PRIVATE_API 6.6.1
 _ZTS20QPlatformMediaPlugin@Qt_6_PRIVATE_API 6.6.1
 _ZTS20QPlatformVideoSource@Qt_6_PRIVATE_API 6.6.1
 _ZTS21QPlatformAudioDecoder@Qt_6_PRIVATE_API 6.6.1
 _ZTS21QPlatformImageCapture@Qt_6_PRIVATE_API 6.6.1
 _ZTS21QPlatformMediaDevices@Qt_6_PRIVATE_API 6.6.1
 _ZTS21QPlatformVideoDevices@Qt_6_PRIVATE_API 6.6.1
 _ZTS22QPlatformMediaRecorder@Qt_6_PRIVATE_API 6.6.1
 _ZTS23QPlatformSurfaceCapture@Qt_6_PRIVATE_API 6.6.1
 _ZTS24QPlatformMediaFormatInfo@Qt_6_PRIVATE_API 6.6.1
 _ZTS25QAudioStateChangeNotifier@Qt_6_PRIVATE_API 6.6.1
 _ZTS25QPlatformMediaIntegration@Qt_6_PRIVATE_API 6.6.1
 _ZTS28QPlatformMediaCaptureSession@Qt_6_PRIVATE_API 6.6.1
 _ZTS30QVideoOutputOrientationHandler@Qt_6_PRIVATE_API 6.6.1
 _ZTS7QCamera@Qt_6 6.6.1
 _ZTS7QSample@Qt_6_PRIVATE_API 6.6.1
 _ZTSZN9QMetaType17registerConverterI5QListI12QAudioDeviceE9QIterableI13QMetaSequenceEN9QtPrivate33QSequentialIterableConvertFunctorIS3_EEEEbT1_EUlPKvPvE_@Qt_6 6.6.1
 _ZTSZN9QMetaType17registerConverterI5QListI13QCameraDeviceE9QIterableI13QMetaSequenceEN9QtPrivate33QSequentialIterableConvertFunctorIS3_EEEEbT1_EUlPKvPvE_@Qt_6 6.6.1
 _ZTSZN9QMetaType17registerConverterI5QListI13QCameraFormatE9QIterableI13QMetaSequenceEN9QtPrivate33QSequentialIterableConvertFunctorIS3_EEEEbT1_EUlPKvPvE_@Qt_6 6.6.1
 _ZTSZN9QMetaType17registerConverterI5QListI14QMediaMetaDataE9QIterableI13QMetaSequenceEN9QtPrivate33QSequentialIterableConvertFunctorIS3_EEEEbT1_EUlPKvPvE_@Qt_6 6.6.1
 _ZTSZN9QMetaType17registerConverterI5QListI17QCapturableWindowE9QIterableI13QMetaSequenceEN9QtPrivate33QSequentialIterableConvertFunctorIS3_EEEEbT1_EUlPKvPvE_@Qt_6 6.6.1
 _ZTSZN9QMetaType17registerConverterI5QListIN12QMediaFormat10AudioCodecEE9QIterableI13QMetaSequenceEN9QtPrivate33QSequentialIterableConvertFunctorIS4_EEEEbT1_EUlPKvPvE_@Qt_6 6.6.1
 _ZTSZN9QMetaType17registerConverterI5QListIN12QMediaFormat10FileFormatEE9QIterableI13QMetaSequenceEN9QtPrivate33QSequentialIterableConvertFunctorIS4_EEEEbT1_EUlPKvPvE_@Qt_6 6.6.1
 _ZTSZN9QMetaType17registerConverterI5QListIN12QMediaFormat10VideoCodecEE9QIterableI13QMetaSequenceEN9QtPrivate33QSequentialIterableConvertFunctorIS4_EEEEbT1_EUlPKvPvE_@Qt_6 6.6.1
 _ZTSZN9QMetaType17registerConverterI5QListIN14QMediaMetaData3KeyEE9QIterableI13QMetaSequenceEN9QtPrivate33QSequentialIterableConvertFunctorIS4_EEEEbT1_EUlPKvPvE_@Qt_6 6.6.1
 _ZTSZN9QMetaType17registerConverterI8QPointerI7QScreenEP7QObjectN9QtPrivate27QSmartPointerConvertFunctorIS3_EEEEbT1_EUlPKvPvE_@Qt_6 6.6.1
 _ZTSZN9QMetaType19registerMutableViewI5QListI12QAudioDeviceE9QIterableI13QMetaSequenceEN9QtPrivate37QSequentialIterableMutableViewFunctorIS3_EEEEbT1_EUlPvSB_E_@Qt_6 6.6.1
 _ZTSZN9QMetaType19registerMutableViewI5QListI13QCameraDeviceE9QIterableI13QMetaSequenceEN9QtPrivate37QSequentialIterableMutableViewFunctorIS3_EEEEbT1_EUlPvSB_E_@Qt_6 6.6.1
 _ZTSZN9QMetaType19registerMutableViewI5QListI13QCameraFormatE9QIterableI13QMetaSequenceEN9QtPrivate37QSequentialIterableMutableViewFunctorIS3_EEEEbT1_EUlPvSB_E_@Qt_6 6.6.1
 _ZTSZN9QMetaType19registerMutableViewI5QListI14QMediaMetaDataE9QIterableI13QMetaSequenceEN9QtPrivate37QSequentialIterableMutableViewFunctorIS3_EEEEbT1_EUlPvSB_E_@Qt_6 6.6.1
 _ZTSZN9QMetaType19registerMutableViewI5QListI17QCapturableWindowE9QIterableI13QMetaSequenceEN9QtPrivate37QSequentialIterableMutableViewFunctorIS3_EEEEbT1_EUlPvSB_E_@Qt_6 6.6.1
 _ZTSZN9QMetaType19registerMutableViewI5QListIN12QMediaFormat10AudioCodecEE9QIterableI13QMetaSequenceEN9QtPrivate37QSequentialIterableMutableViewFunctorIS4_EEEEbT1_EUlPvSC_E_@Qt_6 6.6.1
 _ZTSZN9QMetaType19registerMutableViewI5QListIN12QMediaFormat10FileFormatEE9QIterableI13QMetaSequenceEN9QtPrivate37QSequentialIterableMutableViewFunctorIS4_EEEEbT1_EUlPvSC_E_@Qt_6 6.6.1
 _ZTSZN9QMetaType19registerMutableViewI5QListIN12QMediaFormat10VideoCodecEE9QIterableI13QMetaSequenceEN9QtPrivate37QSequentialIterableMutableViewFunctorIS4_EEEEbT1_EUlPvSC_E_@Qt_6 6.6.1
 _ZTSZN9QMetaType19registerMutableViewI5QListIN14QMediaMetaData3KeyEE9QIterableI13QMetaSequenceEN9QtPrivate37QSequentialIterableMutableViewFunctorIS4_EEEEbT1_EUlPvSC_E_@Qt_6 6.6.1
 _ZTV10QAudioSink@Qt_6 6.6.1
 _ZTV10QVideoSink@Qt_6 6.6.1
 _ZTV11QAudioInput@Qt_6 6.6.1
 _ZTV12QAudioOutput@Qt_6 6.6.1
 _ZTV12QAudioSource@Qt_6 6.6.1
 _ZTV12QMediaPlayer@Qt_6 6.6.1
 _ZTV12QSampleCache@Qt_6_PRIVATE_API 6.6.1
 _ZTV12QSoundEffect@Qt_6 6.6.1
 _ZTV12QVideoWindow@Qt_6_PRIVATE_API 6.6.1
 _ZTV12QWaveDecoder@Qt_6 6.6.1
 _ZTV13QAudioDecoder@Qt_6 6.6.1
 _ZTV13QImageCapture@Qt_6 6.6.1
 _ZTV13QMediaDevices@Qt_6 6.6.1
 _ZTV14QMediaRecorder@Qt_6 6.6.1
 _ZTV14QScreenCapture@Qt_6 6.6.1
 _ZTV14QWindowCapture@Qt_6 6.6.1
 _ZTV15QPlatformCamera@Qt_6_PRIVATE_API 6.6.1
 _ZTV18QMemoryVideoBuffer@Qt_6_PRIVATE_API 6.6.1
 _ZTV18QPlatformAudioSink@Qt_6_PRIVATE_API 6.6.1
 _ZTV18QPlatformVideoSink@Qt_6_PRIVATE_API 6.6.1
 _ZTV19QAudioDevicePrivate@Qt_6_PRIVATE_API 6.6.1
 _ZTV20QAbstractVideoBuffer@Qt_6_PRIVATE_API 6.6.1
 _ZTV20QMediaCaptureSession@Qt_6 6.6.1
 _ZTV20QPlatformAudioSource@Qt_6_PRIVATE_API 6.6.1
 _ZTV20QPlatformMediaPlayer@Qt_6_PRIVATE_API 6.6.1
 _ZTV20QPlatformMediaPlugin@Qt_6_PRIVATE_API 6.6.1
 _ZTV20QPlatformVideoSource@Qt_6_PRIVATE_API 6.6.1
 _ZTV21QPlatformAudioDecoder@Qt_6_PRIVATE_API 6.6.1
 _ZTV21QPlatformImageCapture@Qt_6_PRIVATE_API 6.6.1
 _ZTV21QPlatformMediaDevices@Qt_6_PRIVATE_API 6.6.1
 _ZTV21QPlatformVideoDevices@Qt_6_PRIVATE_API 6.6.1
 _ZTV22QPlatformMediaRecorder@Qt_6_PRIVATE_API 6.6.1
 _ZTV23QPlatformSurfaceCapture@Qt_6_PRIVATE_API 6.6.1
 _ZTV24QPlatformMediaFormatInfo@Qt_6_PRIVATE_API 6.6.1
 _ZTV25QAudioStateChangeNotifier@Qt_6_PRIVATE_API 6.6.1
 _ZTV25QPlatformMediaIntegration@Qt_6_PRIVATE_API 6.6.1
 _ZTV28QPlatformMediaCaptureSession@Qt_6_PRIVATE_API 6.6.1
 _ZTV30QVideoOutputOrientationHandler@Qt_6_PRIVATE_API 6.6.1
 _ZTV7QCamera@Qt_6 6.6.1
 _ZTV7QSample@Qt_6_PRIVATE_API 6.6.1
 (optional=templinst)_ZZN9QMetaType21registerConverterImplI5QListI12QAudioDeviceE9QIterableI13QMetaSequenceEEEbSt8functionIFbPKvPvEES_S_E10unregister@Qt_6 6.6.1
 (optional=templinst)_ZZN9QMetaType21registerConverterImplI5QListI13QCameraDeviceE9QIterableI13QMetaSequenceEEEbSt8functionIFbPKvPvEES_S_E10unregister@Qt_6 6.6.1
 (optional=templinst)_ZZN9QMetaType21registerConverterImplI5QListI13QCameraFormatE9QIterableI13QMetaSequenceEEEbSt8functionIFbPKvPvEES_S_E10unregister@Qt_6 6.6.1
 (optional=templinst)_ZZN9QMetaType21registerConverterImplI5QListI14QMediaMetaDataE9QIterableI13QMetaSequenceEEEbSt8functionIFbPKvPvEES_S_E10unregister@Qt_6 6.6.1
 (optional=templinst)_ZZN9QMetaType21registerConverterImplI5QListI17QCapturableWindowE9QIterableI13QMetaSequenceEEEbSt8functionIFbPKvPvEES_S_E10unregister@Qt_6 6.6.1
 (optional=templinst)_ZZN9QMetaType21registerConverterImplI5QListIN12QMediaFormat10AudioCodecEE9QIterableI13QMetaSequenceEEEbSt8functionIFbPKvPvEES_S_E10unregister@Qt_6 6.6.1
 (optional=templinst)_ZZN9QMetaType21registerConverterImplI5QListIN12QMediaFormat10FileFormatEE9QIterableI13QMetaSequenceEEEbSt8functionIFbPKvPvEES_S_E10unregister@Qt_6 6.6.1
 (optional=templinst)_ZZN9QMetaType21registerConverterImplI5QListIN12QMediaFormat10VideoCodecEE9QIterableI13QMetaSequenceEEEbSt8functionIFbPKvPvEES_S_E10unregister@Qt_6 6.6.1
 (optional=templinst)_ZZN9QMetaType21registerConverterImplI5QListIN14QMediaMetaData3KeyEE9QIterableI13QMetaSequenceEEEbSt8functionIFbPKvPvEES_S_E10unregister@Qt_6 6.6.1
 (optional=templinst)_ZZN9QMetaType21registerConverterImplI8QPointerI7QScreenEP7QObjectEEbSt8functionIFbPKvPvEES_S_E10unregister@Qt_6 6.6.1
 (optional=templinst)_ZZN9QMetaType23registerMutableViewImplI5QListI12QAudioDeviceE9QIterableI13QMetaSequenceEEEbSt8functionIFbPvS8_EES_S_E10unregister@Qt_6 6.6.1
 (optional=templinst)_ZZN9QMetaType23registerMutableViewImplI5QListI13QCameraDeviceE9QIterableI13QMetaSequenceEEEbSt8functionIFbPvS8_EES_S_E10unregister@Qt_6 6.6.1
 (optional=templinst)_ZZN9QMetaType23registerMutableViewImplI5QListI13QCameraFormatE9QIterableI13QMetaSequenceEEEbSt8functionIFbPvS8_EES_S_E10unregister@Qt_6 6.6.1
 (optional=templinst)_ZZN9QMetaType23registerMutableViewImplI5QListI14QMediaMetaDataE9QIterableI13QMetaSequenceEEEbSt8functionIFbPvS8_EES_S_E10unregister@Qt_6 6.6.1
 (optional=templinst)_ZZN9QMetaType23registerMutableViewImplI5QListI17QCapturableWindowE9QIterableI13QMetaSequenceEEEbSt8functionIFbPvS8_EES_S_E10unregister@Qt_6 6.6.1
 (optional=templinst)_ZZN9QMetaType23registerMutableViewImplI5QListIN12QMediaFormat10AudioCodecEE9QIterableI13QMetaSequenceEEEbSt8functionIFbPvS9_EES_S_E10unregister@Qt_6 6.6.1
 (optional=templinst)_ZZN9QMetaType23registerMutableViewImplI5QListIN12QMediaFormat10FileFormatEE9QIterableI13QMetaSequenceEEEbSt8functionIFbPvS9_EES_S_E10unregister@Qt_6 6.6.1
 (optional=templinst)_ZZN9QMetaType23registerMutableViewImplI5QListIN12QMediaFormat10VideoCodecEE9QIterableI13QMetaSequenceEEEbSt8functionIFbPvS9_EES_S_E10unregister@Qt_6 6.6.1
 (optional=templinst)_ZZN9QMetaType23registerMutableViewImplI5QListIN14QMediaMetaData3KeyEE9QIterableI13QMetaSequenceEEEbSt8functionIFbPvS9_EES_S_E10unregister@Qt_6 6.6.1
 (optional=templinst)_ZZNSt9once_flag18_Prepare_executionC4IZSt9call_onceIPFvvEJEEvRS_OT_DpOT0_EUlvE_EERS6_ENUlvE_4_FUNEv@Qt_6 6.6.1
 _ZeqRK17QCapturableWindowS1_@Qt_6 6.6.1
 _Zls6QDebugN11QVideoFrame10HandleTypeE@Qt_6 6.6.1
 _Zls6QDebugN11QVideoFrame7MapModeE@Qt_6 6.6.1
 _Zls6QDebugN12QAudioDevice4ModeE@Qt_6 6.6.1
 _Zls6QDebugN12QAudioFormat12SampleFormatE@Qt_6 6.6.1
 _Zls6QDebugN17QVideoFrameFormat10ColorSpaceE@Qt_6 6.6.1
 _Zls6QDebugN17QVideoFrameFormat11PixelFormatE@Qt_6 6.6.1
 _Zls6QDebugN17QVideoFrameFormat15YCbCrColorSpaceE@Qt_6 6.6.1
 _Zls6QDebugN17QVideoFrameFormat9DirectionE@Qt_6 6.6.1
 _Zls6QDebugN6QAudio11VolumeScaleE@Qt_6 6.6.1
 _Zls6QDebugN6QAudio5ErrorE@Qt_6 6.6.1
 _Zls6QDebugN6QAudio5StateE@Qt_6 6.6.1
 _Zls6QDebugRK11QVideoFrame@Qt_6 6.6.1
 _Zls6QDebugRK12QAudioFormat@Qt_6 6.6.1
 _Zls6QDebugRK13QCameraDevice@Qt_6 6.6.1
 _Zls6QDebugRK15QMediaTimeRange@Qt_6 6.6.1
 _Zls6QDebugRK17QCapturableWindow@Qt_6 6.6.1
 _Zls6QDebugRK17QVideoFrameFormat@Qt_6 6.6.1
 _Zls6QDebugRKN15QMediaTimeRange8IntervalE@Qt_6 6.6.1
 (c++)"non-virtual thunk to QVideoWindow::~QVideoWindow()@Qt_6_PRIVATE_API" 6.6.1
